ARM GAS  C:\Users\ALVAROGA\AppData\Local\Temp\cckxmyp4.s 			page 1


   1              		.syntax unified
   2              		.cpu cortex-m3
   3              		.fpu softvfp
   4              		.eabi_attribute 20, 1
   5              		.eabi_attribute 21, 1
   6              		.eabi_attribute 23, 3
   7              		.eabi_attribute 24, 1
   8              		.eabi_attribute 25, 1
   9              		.eabi_attribute 26, 1
  10              		.eabi_attribute 30, 1
  11              		.eabi_attribute 34, 1
  12              		.eabi_attribute 18, 4
  13              		.thumb
  14              		.syntax unified
  15              		.file	"Filter_1_PM.c"
  16              		.text
  17              	.Ltext0:
  18              		.cfi_sections	.debug_frame
  19              		.section	.text.Filter_1_SaveConfig,"ax",%progbits
  20              		.align	2
  21              		.global	Filter_1_SaveConfig
  22              		.thumb
  23              		.thumb_func
  24              		.type	Filter_1_SaveConfig, %function
  25              	Filter_1_SaveConfig:
  26              	.LFB0:
  27              		.file 1 "Generated_Source\\PSoC5\\Filter_1_PM.c"
   1:Generated_Source\PSoC5/Filter_1_PM.c **** /*******************************************************************************
   2:Generated_Source\PSoC5/Filter_1_PM.c **** * File Name: Filter_1_PM.c
   3:Generated_Source\PSoC5/Filter_1_PM.c **** * Version 2.30
   4:Generated_Source\PSoC5/Filter_1_PM.c **** *
   5:Generated_Source\PSoC5/Filter_1_PM.c **** * Description:
   6:Generated_Source\PSoC5/Filter_1_PM.c **** *  This file provides the power managaer API source code for the FILT component.
   7:Generated_Source\PSoC5/Filter_1_PM.c **** *
   8:Generated_Source\PSoC5/Filter_1_PM.c **** * Note:
   9:Generated_Source\PSoC5/Filter_1_PM.c **** *  
  10:Generated_Source\PSoC5/Filter_1_PM.c **** *******************************************************************************
  11:Generated_Source\PSoC5/Filter_1_PM.c **** * Copyright 2008-2013, Cypress Semiconductor Corporation.  All rights reserved.
  12:Generated_Source\PSoC5/Filter_1_PM.c **** * You may use this file only in accordance with the license, terms, conditions, 
  13:Generated_Source\PSoC5/Filter_1_PM.c **** * disclaimers, and limitations in the end user license agreement accompanying 
  14:Generated_Source\PSoC5/Filter_1_PM.c **** * the software package with which this file was provided.
  15:Generated_Source\PSoC5/Filter_1_PM.c **** ********************************************************************************/
  16:Generated_Source\PSoC5/Filter_1_PM.c **** 
  17:Generated_Source\PSoC5/Filter_1_PM.c **** #include "Filter_1_PVT.h"
  18:Generated_Source\PSoC5/Filter_1_PM.c **** 
  19:Generated_Source\PSoC5/Filter_1_PM.c **** static Filter_1_backupStruct  Filter_1_backup = 
  20:Generated_Source\PSoC5/Filter_1_PM.c **** {
  21:Generated_Source\PSoC5/Filter_1_PM.c ****     Filter_1_DISABLED,
  22:Generated_Source\PSoC5/Filter_1_PM.c ****     Filter_1_RUN_MASK,
  23:Generated_Source\PSoC5/Filter_1_PM.c ****     
  24:Generated_Source\PSoC5/Filter_1_PM.c **** };
  25:Generated_Source\PSoC5/Filter_1_PM.c **** 
  26:Generated_Source\PSoC5/Filter_1_PM.c **** 
  27:Generated_Source\PSoC5/Filter_1_PM.c **** /*******************************************************************************
  28:Generated_Source\PSoC5/Filter_1_PM.c **** * Function Name: Filter_1_SaveConfig
  29:Generated_Source\PSoC5/Filter_1_PM.c **** ********************************************************************************
  30:Generated_Source\PSoC5/Filter_1_PM.c **** *
ARM GAS  C:\Users\ALVAROGA\AppData\Local\Temp\cckxmyp4.s 			page 2


  31:Generated_Source\PSoC5/Filter_1_PM.c **** * Summary:
  32:Generated_Source\PSoC5/Filter_1_PM.c **** *  Saves the current user configuration.
  33:Generated_Source\PSoC5/Filter_1_PM.c **** *  
  34:Generated_Source\PSoC5/Filter_1_PM.c **** * Parameters:  
  35:Generated_Source\PSoC5/Filter_1_PM.c **** *  void
  36:Generated_Source\PSoC5/Filter_1_PM.c **** *
  37:Generated_Source\PSoC5/Filter_1_PM.c **** * Return: 
  38:Generated_Source\PSoC5/Filter_1_PM.c **** *  void
  39:Generated_Source\PSoC5/Filter_1_PM.c **** *
  40:Generated_Source\PSoC5/Filter_1_PM.c **** * Global variables:
  41:Generated_Source\PSoC5/Filter_1_PM.c **** *  Filter_1_backup:  This global structure variable is used to store 
  42:Generated_Source\PSoC5/Filter_1_PM.c **** *  configuration registers which are non retention whenever user wants to go 
  43:Generated_Source\PSoC5/Filter_1_PM.c **** *  sleep mode by calling Sleep() API.
  44:Generated_Source\PSoC5/Filter_1_PM.c **** *
  45:Generated_Source\PSoC5/Filter_1_PM.c **** *******************************************************************************/
  46:Generated_Source\PSoC5/Filter_1_PM.c **** void Filter_1_SaveConfig(void) 
  47:Generated_Source\PSoC5/Filter_1_PM.c **** {
  28              		.loc 1 47 0
  29              		.cfi_startproc
  30              		@ args = 0, pretend = 0, frame = 0
  31              		@ frame_needed = 0, uses_anonymous_args = 0
  32              		@ link register save eliminated.
  33 0000 70B4     		push	{r4, r5, r6}
  34              		.cfi_def_cfa_offset 12
  35              		.cfi_offset 4, -12
  36              		.cfi_offset 5, -8
  37              		.cfi_offset 6, -4
  48:Generated_Source\PSoC5/Filter_1_PM.c ****     Filter_1_backup.sr = Filter_1_SR_REG;
  38              		.loc 1 48 0
  39 0002 0D4B     		ldr	r3, .L3
  40 0004 1B78     		ldrb	r3, [r3]	@ zero_extendqisi2
  41 0006 0D4C     		ldr	r4, .L3+4
  42 0008 A370     		strb	r3, [r4, #2]
  49:Generated_Source\PSoC5/Filter_1_PM.c ****     Filter_1_backup.sema = Filter_1_SEMA_REG;
  43              		.loc 1 49 0
  44 000a 0D4B     		ldr	r3, .L3+8
  45 000c 1B78     		ldrb	r3, [r3]	@ zero_extendqisi2
  46 000e E370     		strb	r3, [r4, #3]
  50:Generated_Source\PSoC5/Filter_1_PM.c **** 
  51:Generated_Source\PSoC5/Filter_1_PM.c ****     /* Put DFB RAM on the bus */
  52:Generated_Source\PSoC5/Filter_1_PM.c ****     Filter_1_RAM_DIR_REG = Filter_1_RAM_DIR_BUS;
  47              		.loc 1 52 0
  48 0010 0C4E     		ldr	r6, .L3+12
  49 0012 3F23     		movs	r3, #63
  50 0014 3370     		strb	r3, [r6]
  53:Generated_Source\PSoC5/Filter_1_PM.c **** 
  54:Generated_Source\PSoC5/Filter_1_PM.c ****     /* Save the ACU RAM as this is not retension */
  55:Generated_Source\PSoC5/Filter_1_PM.c ****     (void)memcpy(Filter_1_backup.saveAcu,
  51              		.loc 1 55 0
  52 0016 0434     		adds	r4, r4, #4
  53 0018 0B4D     		ldr	r5, .L3+16
  54 001a 0FCD     		ldmia	r5!, {r0, r1, r2, r3}
  55 001c 0FC4     		stmia	r4!, {r0, r1, r2, r3}
  56 001e 0FCD     		ldmia	r5!, {r0, r1, r2, r3}
  57 0020 0FC4     		stmia	r4!, {r0, r1, r2, r3}
  58 0022 0FCD     		ldmia	r5!, {r0, r1, r2, r3}
  59 0024 0FC4     		stmia	r4!, {r0, r1, r2, r3}
ARM GAS  C:\Users\ALVAROGA\AppData\Local\Temp\cckxmyp4.s 			page 3


  60 0026 95E80F00 		ldmia	r5, {r0, r1, r2, r3}
  61 002a 84E80F00 		stmia	r4, {r0, r1, r2, r3}
  56:Generated_Source\PSoC5/Filter_1_PM.c ****         Filter_1_ACU_RAM, Filter_1_ACU_RAM_SIZE); 
  57:Generated_Source\PSoC5/Filter_1_PM.c **** 
  58:Generated_Source\PSoC5/Filter_1_PM.c ****     /* Take DFB RAM off the bus */
  59:Generated_Source\PSoC5/Filter_1_PM.c ****     Filter_1_RAM_DIR_REG = Filter_1_RAM_DIR_DFB;
  62              		.loc 1 59 0
  63 002e 0023     		movs	r3, #0
  64 0030 3370     		strb	r3, [r6]
  60:Generated_Source\PSoC5/Filter_1_PM.c **** }
  65              		.loc 1 60 0
  66 0032 70BC     		pop	{r4, r5, r6}
  67              		.cfi_restore 6
  68              		.cfi_restore 5
  69              		.cfi_restore 4
  70              		.cfi_def_cfa_offset 0
  71 0034 7047     		bx	lr
  72              	.L4:
  73 0036 00BF     		.align	2
  74              	.L3:
  75 0038 84C70040 		.word	1073792900
  76 003c 00000000 		.word	.LANCHOR0
  77 0040 90C70040 		.word	1073792912
  78 0044 8CC70040 		.word	1073792908
  79 0048 00C70040 		.word	1073792768
  80              		.cfi_endproc
  81              	.LFE0:
  82              		.size	Filter_1_SaveConfig, .-Filter_1_SaveConfig
  83              		.section	.text.Filter_1_RestoreConfig,"ax",%progbits
  84              		.align	2
  85              		.global	Filter_1_RestoreConfig
  86              		.thumb
  87              		.thumb_func
  88              		.type	Filter_1_RestoreConfig, %function
  89              	Filter_1_RestoreConfig:
  90              	.LFB1:
  61:Generated_Source\PSoC5/Filter_1_PM.c **** 
  62:Generated_Source\PSoC5/Filter_1_PM.c **** 
  63:Generated_Source\PSoC5/Filter_1_PM.c **** /*******************************************************************************
  64:Generated_Source\PSoC5/Filter_1_PM.c **** * Function Name: Filter_1_RestoreConfig
  65:Generated_Source\PSoC5/Filter_1_PM.c **** ********************************************************************************
  66:Generated_Source\PSoC5/Filter_1_PM.c **** *
  67:Generated_Source\PSoC5/Filter_1_PM.c **** * Summary:
  68:Generated_Source\PSoC5/Filter_1_PM.c **** *  Restores the current user configuration.
  69:Generated_Source\PSoC5/Filter_1_PM.c **** *
  70:Generated_Source\PSoC5/Filter_1_PM.c **** * Parameters:  
  71:Generated_Source\PSoC5/Filter_1_PM.c **** *  void
  72:Generated_Source\PSoC5/Filter_1_PM.c **** *
  73:Generated_Source\PSoC5/Filter_1_PM.c **** * Return: 
  74:Generated_Source\PSoC5/Filter_1_PM.c **** *  void
  75:Generated_Source\PSoC5/Filter_1_PM.c **** *
  76:Generated_Source\PSoC5/Filter_1_PM.c **** * Global variables:
  77:Generated_Source\PSoC5/Filter_1_PM.c **** *  Filter_1_backup:  This global structure variable is used to restore 
  78:Generated_Source\PSoC5/Filter_1_PM.c **** *  configuration registers which are non retention whenever user wants to switch 
  79:Generated_Source\PSoC5/Filter_1_PM.c **** *  to active power mode by calling Wakeup() API.
  80:Generated_Source\PSoC5/Filter_1_PM.c **** *
  81:Generated_Source\PSoC5/Filter_1_PM.c **** *******************************************************************************/
ARM GAS  C:\Users\ALVAROGA\AppData\Local\Temp\cckxmyp4.s 			page 4


  82:Generated_Source\PSoC5/Filter_1_PM.c **** void Filter_1_RestoreConfig(void) 
  83:Generated_Source\PSoC5/Filter_1_PM.c **** {
  91              		.loc 1 83 0
  92              		.cfi_startproc
  93              		@ args = 0, pretend = 0, frame = 0
  94              		@ frame_needed = 0, uses_anonymous_args = 0
  95              		@ link register save eliminated.
  96 0000 70B4     		push	{r4, r5, r6}
  97              		.cfi_def_cfa_offset 12
  98              		.cfi_offset 4, -12
  99              		.cfi_offset 5, -8
 100              		.cfi_offset 6, -4
  84:Generated_Source\PSoC5/Filter_1_PM.c ****     Filter_1_SR_REG = Filter_1_backup.sr;
 101              		.loc 1 84 0
 102 0002 0F4C     		ldr	r4, .L7
 103 0004 A278     		ldrb	r2, [r4, #2]	@ zero_extendqisi2
 104 0006 0F4B     		ldr	r3, .L7+4
 105 0008 1A70     		strb	r2, [r3]
  85:Generated_Source\PSoC5/Filter_1_PM.c ****     Filter_1_SEMA_REG = Filter_1_backup.sema;
 106              		.loc 1 85 0
 107 000a E278     		ldrb	r2, [r4, #3]	@ zero_extendqisi2
 108 000c 0C33     		adds	r3, r3, #12
 109 000e 1A70     		strb	r2, [r3]
  86:Generated_Source\PSoC5/Filter_1_PM.c ****     
  87:Generated_Source\PSoC5/Filter_1_PM.c ****     /* Power on DFB before initializing the RAMs */
  88:Generated_Source\PSoC5/Filter_1_PM.c ****     Filter_1_PM_ACT_CFG_REG |= Filter_1_PM_ACT_MSK;
 110              		.loc 1 88 0
 111 0010 0D4A     		ldr	r2, .L7+8
 112 0012 1378     		ldrb	r3, [r2]	@ zero_extendqisi2
 113 0014 43F01003 		orr	r3, r3, #16
 114 0018 1370     		strb	r3, [r2]
  89:Generated_Source\PSoC5/Filter_1_PM.c **** 
  90:Generated_Source\PSoC5/Filter_1_PM.c ****     /* Put DFB RAM on the bus */
  91:Generated_Source\PSoC5/Filter_1_PM.c ****     Filter_1_RAM_DIR_REG = Filter_1_RAM_DIR_BUS;
 115              		.loc 1 91 0
 116 001a 0C4E     		ldr	r6, .L7+12
 117 001c 3F23     		movs	r3, #63
 118 001e 3370     		strb	r3, [r6]
  92:Generated_Source\PSoC5/Filter_1_PM.c **** 
  93:Generated_Source\PSoC5/Filter_1_PM.c ****     /* Restore ACU RAM as this is not retension */
  94:Generated_Source\PSoC5/Filter_1_PM.c ****     (void)memcpy(Filter_1_ACU_RAM,
 119              		.loc 1 94 0
 120 0020 0B4D     		ldr	r5, .L7+16
 121 0022 0434     		adds	r4, r4, #4
 122 0024 0FCC     		ldmia	r4!, {r0, r1, r2, r3}
 123 0026 0FC5     		stmia	r5!, {r0, r1, r2, r3}
 124 0028 0FCC     		ldmia	r4!, {r0, r1, r2, r3}
 125 002a 0FC5     		stmia	r5!, {r0, r1, r2, r3}
 126 002c 0FCC     		ldmia	r4!, {r0, r1, r2, r3}
 127 002e 0FC5     		stmia	r5!, {r0, r1, r2, r3}
 128 0030 94E80F00 		ldmia	r4, {r0, r1, r2, r3}
 129 0034 85E80F00 		stmia	r5, {r0, r1, r2, r3}
  95:Generated_Source\PSoC5/Filter_1_PM.c ****         Filter_1_backup.saveAcu, Filter_1_ACU_RAM_SIZE); 
  96:Generated_Source\PSoC5/Filter_1_PM.c **** 
  97:Generated_Source\PSoC5/Filter_1_PM.c ****     /* Take DFB RAM off the bus */
  98:Generated_Source\PSoC5/Filter_1_PM.c ****     Filter_1_RAM_DIR_REG = Filter_1_RAM_DIR_DFB;
 130              		.loc 1 98 0
ARM GAS  C:\Users\ALVAROGA\AppData\Local\Temp\cckxmyp4.s 			page 5


 131 0038 0023     		movs	r3, #0
 132 003a 3370     		strb	r3, [r6]
  99:Generated_Source\PSoC5/Filter_1_PM.c **** }
 133              		.loc 1 99 0
 134 003c 70BC     		pop	{r4, r5, r6}
 135              		.cfi_restore 6
 136              		.cfi_restore 5
 137              		.cfi_restore 4
 138              		.cfi_def_cfa_offset 0
 139 003e 7047     		bx	lr
 140              	.L8:
 141              		.align	2
 142              	.L7:
 143 0040 00000000 		.word	.LANCHOR0
 144 0044 84C70040 		.word	1073792900
 145 0048 A6430040 		.word	1073759142
 146 004c 8CC70040 		.word	1073792908
 147 0050 00C70040 		.word	1073792768
 148              		.cfi_endproc
 149              	.LFE1:
 150              		.size	Filter_1_RestoreConfig, .-Filter_1_RestoreConfig
 151              		.section	.text.Filter_1_Sleep,"ax",%progbits
 152              		.align	2
 153              		.global	Filter_1_Sleep
 154              		.thumb
 155              		.thumb_func
 156              		.type	Filter_1_Sleep, %function
 157              	Filter_1_Sleep:
 158              	.LFB2:
 100:Generated_Source\PSoC5/Filter_1_PM.c **** 
 101:Generated_Source\PSoC5/Filter_1_PM.c **** 
 102:Generated_Source\PSoC5/Filter_1_PM.c **** /*******************************************************************************
 103:Generated_Source\PSoC5/Filter_1_PM.c **** * Function Name: Filter_1_Sleep
 104:Generated_Source\PSoC5/Filter_1_PM.c **** ********************************************************************************
 105:Generated_Source\PSoC5/Filter_1_PM.c **** *
 106:Generated_Source\PSoC5/Filter_1_PM.c **** * Summary:
 107:Generated_Source\PSoC5/Filter_1_PM.c **** *  Disables block's operation and saves its configuration. Should be called 
 108:Generated_Source\PSoC5/Filter_1_PM.c **** *  just prior to entering sleep.
 109:Generated_Source\PSoC5/Filter_1_PM.c **** *  
 110:Generated_Source\PSoC5/Filter_1_PM.c **** * Parameters:  
 111:Generated_Source\PSoC5/Filter_1_PM.c **** *  void
 112:Generated_Source\PSoC5/Filter_1_PM.c **** *
 113:Generated_Source\PSoC5/Filter_1_PM.c **** * Return: 
 114:Generated_Source\PSoC5/Filter_1_PM.c **** *  void
 115:Generated_Source\PSoC5/Filter_1_PM.c **** *
 116:Generated_Source\PSoC5/Filter_1_PM.c **** * Global variables:
 117:Generated_Source\PSoC5/Filter_1_PM.c **** *  Filter_1_backup:  The structure field 'enableState' is modified 
 118:Generated_Source\PSoC5/Filter_1_PM.c **** *  depending on the enable state of the block before entering to sleep mode.
 119:Generated_Source\PSoC5/Filter_1_PM.c **** *
 120:Generated_Source\PSoC5/Filter_1_PM.c **** *******************************************************************************/
 121:Generated_Source\PSoC5/Filter_1_PM.c **** void Filter_1_Sleep(void) 
 122:Generated_Source\PSoC5/Filter_1_PM.c **** {
 159              		.loc 1 122 0
 160              		.cfi_startproc
 161              		@ args = 0, pretend = 0, frame = 0
 162              		@ frame_needed = 0, uses_anonymous_args = 0
 163 0000 08B5     		push	{r3, lr}
ARM GAS  C:\Users\ALVAROGA\AppData\Local\Temp\cckxmyp4.s 			page 6


 164              		.cfi_def_cfa_offset 8
 165              		.cfi_offset 3, -8
 166              		.cfi_offset 14, -4
 123:Generated_Source\PSoC5/Filter_1_PM.c ****     /* Save Filter enable state */
 124:Generated_Source\PSoC5/Filter_1_PM.c ****     if(Filter_1_PM_ACT_MSK == (Filter_1_PM_ACT_CFG_REG & Filter_1_PM_ACT_MSK))
 167              		.loc 1 124 0
 168 0002 084B     		ldr	r3, .L13
 169 0004 1B78     		ldrb	r3, [r3]	@ zero_extendqisi2
 170 0006 13F0100F 		tst	r3, #16
 171 000a 03D0     		beq	.L10
 125:Generated_Source\PSoC5/Filter_1_PM.c ****     {
 126:Generated_Source\PSoC5/Filter_1_PM.c ****         /* Component is enabled */
 127:Generated_Source\PSoC5/Filter_1_PM.c ****         Filter_1_backup.enableState = Filter_1_ENABLED;
 172              		.loc 1 127 0
 173 000c 0122     		movs	r2, #1
 174 000e 064B     		ldr	r3, .L13+4
 175 0010 1A70     		strb	r2, [r3]
 176 0012 02E0     		b	.L11
 177              	.L10:
 128:Generated_Source\PSoC5/Filter_1_PM.c ****     }
 129:Generated_Source\PSoC5/Filter_1_PM.c ****     else
 130:Generated_Source\PSoC5/Filter_1_PM.c ****     {
 131:Generated_Source\PSoC5/Filter_1_PM.c ****         /* Component is disabled */
 132:Generated_Source\PSoC5/Filter_1_PM.c ****         Filter_1_backup.enableState = Filter_1_DISABLED;
 178              		.loc 1 132 0
 179 0014 0022     		movs	r2, #0
 180 0016 044B     		ldr	r3, .L13+4
 181 0018 1A70     		strb	r2, [r3]
 182              	.L11:
 133:Generated_Source\PSoC5/Filter_1_PM.c ****     }
 134:Generated_Source\PSoC5/Filter_1_PM.c **** 
 135:Generated_Source\PSoC5/Filter_1_PM.c ****     /* Save the configuration */
 136:Generated_Source\PSoC5/Filter_1_PM.c ****     Filter_1_SaveConfig();
 183              		.loc 1 136 0
 184 001a FFF7FEFF 		bl	Filter_1_SaveConfig
 185              	.LVL0:
 137:Generated_Source\PSoC5/Filter_1_PM.c ****     
 138:Generated_Source\PSoC5/Filter_1_PM.c ****     /* Stop the component */
 139:Generated_Source\PSoC5/Filter_1_PM.c ****     Filter_1_Stop();
 186              		.loc 1 139 0
 187 001e FFF7FEFF 		bl	Filter_1_Stop
 188              	.LVL1:
 189 0022 08BD     		pop	{r3, pc}
 190              	.L14:
 191              		.align	2
 192              	.L13:
 193 0024 A6430040 		.word	1073759142
 194 0028 00000000 		.word	.LANCHOR0
 195              		.cfi_endproc
 196              	.LFE2:
 197              		.size	Filter_1_Sleep, .-Filter_1_Sleep
 198              		.section	.text.Filter_1_Wakeup,"ax",%progbits
 199              		.align	2
 200              		.global	Filter_1_Wakeup
 201              		.thumb
 202              		.thumb_func
 203              		.type	Filter_1_Wakeup, %function
ARM GAS  C:\Users\ALVAROGA\AppData\Local\Temp\cckxmyp4.s 			page 7


 204              	Filter_1_Wakeup:
 205              	.LFB3:
 140:Generated_Source\PSoC5/Filter_1_PM.c **** }
 141:Generated_Source\PSoC5/Filter_1_PM.c **** 
 142:Generated_Source\PSoC5/Filter_1_PM.c **** 
 143:Generated_Source\PSoC5/Filter_1_PM.c **** /*******************************************************************************
 144:Generated_Source\PSoC5/Filter_1_PM.c **** * Function Name: Filter_1_Wakeup
 145:Generated_Source\PSoC5/Filter_1_PM.c **** ********************************************************************************
 146:Generated_Source\PSoC5/Filter_1_PM.c **** *
 147:Generated_Source\PSoC5/Filter_1_PM.c **** * Summary:
 148:Generated_Source\PSoC5/Filter_1_PM.c **** *  Enables block's operation and restores its configuration. Should be called
 149:Generated_Source\PSoC5/Filter_1_PM.c **** *  just after awaking from sleep.
 150:Generated_Source\PSoC5/Filter_1_PM.c **** *  
 151:Generated_Source\PSoC5/Filter_1_PM.c **** * Parameters:  
 152:Generated_Source\PSoC5/Filter_1_PM.c **** *  void
 153:Generated_Source\PSoC5/Filter_1_PM.c **** *
 154:Generated_Source\PSoC5/Filter_1_PM.c **** * Return: 
 155:Generated_Source\PSoC5/Filter_1_PM.c **** *  void
 156:Generated_Source\PSoC5/Filter_1_PM.c **** *
 157:Generated_Source\PSoC5/Filter_1_PM.c **** * Global variables:
 158:Generated_Source\PSoC5/Filter_1_PM.c **** *  Filter_1_backup:  The structure field 'enableState' is used to 
 159:Generated_Source\PSoC5/Filter_1_PM.c **** *  restore the enable state of block after wakeup from sleep mode.
 160:Generated_Source\PSoC5/Filter_1_PM.c **** *
 161:Generated_Source\PSoC5/Filter_1_PM.c **** *******************************************************************************/
 162:Generated_Source\PSoC5/Filter_1_PM.c **** void Filter_1_Wakeup(void) 
 163:Generated_Source\PSoC5/Filter_1_PM.c **** {
 206              		.loc 1 163 0
 207              		.cfi_startproc
 208              		@ args = 0, pretend = 0, frame = 0
 209              		@ frame_needed = 0, uses_anonymous_args = 0
 210 0000 08B5     		push	{r3, lr}
 211              		.cfi_def_cfa_offset 8
 212              		.cfi_offset 3, -8
 213              		.cfi_offset 14, -4
 164:Generated_Source\PSoC5/Filter_1_PM.c ****     /* Restore the configuration */
 165:Generated_Source\PSoC5/Filter_1_PM.c ****     Filter_1_RestoreConfig();
 214              		.loc 1 165 0
 215 0002 FFF7FEFF 		bl	Filter_1_RestoreConfig
 216              	.LVL2:
 166:Generated_Source\PSoC5/Filter_1_PM.c ****     
 167:Generated_Source\PSoC5/Filter_1_PM.c ****     /* Enable's the component operation */
 168:Generated_Source\PSoC5/Filter_1_PM.c ****     if(Filter_1_backup.enableState == Filter_1_ENABLED)
 217              		.loc 1 168 0
 218 0006 034B     		ldr	r3, .L18
 219 0008 1B78     		ldrb	r3, [r3]	@ zero_extendqisi2
 220 000a 012B     		cmp	r3, #1
 221 000c 01D1     		bne	.L15
 169:Generated_Source\PSoC5/Filter_1_PM.c ****     {
 170:Generated_Source\PSoC5/Filter_1_PM.c ****         Filter_1_Enable();
 222              		.loc 1 170 0
 223 000e FFF7FEFF 		bl	Filter_1_Enable
 224              	.LVL3:
 225              	.L15:
 226 0012 08BD     		pop	{r3, pc}
 227              	.L19:
 228              		.align	2
 229              	.L18:
ARM GAS  C:\Users\ALVAROGA\AppData\Local\Temp\cckxmyp4.s 			page 8


 230 0014 00000000 		.word	.LANCHOR0
 231              		.cfi_endproc
 232              	.LFE3:
 233              		.size	Filter_1_Wakeup, .-Filter_1_Wakeup
 234              		.data
 235              		.align	2
 236              		.set	.LANCHOR0,. + 0
 237              		.type	Filter_1_backup, %object
 238              		.size	Filter_1_backup, 68
 239              	Filter_1_backup:
 240 0000 00       		.byte	0
 241 0001 01       		.byte	1
 242 0002 00000000 		.space	66
 242      00000000 
 242      00000000 
 242      00000000 
 242      00000000 
 243              		.text
 244              	.Letext0:
 245              		.file 2 "Generated_Source\\PSoC5\\cytypes.h"
 246              		.file 3 "Generated_Source\\PSoC5\\Filter_1.H"