ARM GAS  C:\Users\ALVAROGA\AppData\Local\Temp\ccsbyCdW.s 			page 1


   1              		.syntax unified
   2              		.cpu cortex-m3
   3              		.fpu softvfp
   4              		.eabi_attribute 20, 1
   5              		.eabi_attribute 21, 1
   6              		.eabi_attribute 23, 3
   7              		.eabi_attribute 24, 1
   8              		.eabi_attribute 25, 1
   9              		.eabi_attribute 26, 1
  10              		.eabi_attribute 30, 1
  11              		.eabi_attribute 34, 1
  12              		.eabi_attribute 18, 4
  13              		.thumb
  14              		.syntax unified
  15              		.file	"Filter_1.c"
  16              		.text
  17              	.Ltext0:
  18              		.cfi_sections	.debug_frame
  19              		.section	.text.Filter_1_Init,"ax",%progbits
  20              		.align	2
  21              		.global	Filter_1_Init
  22              		.thumb
  23              		.thumb_func
  24              		.type	Filter_1_Init, %function
  25              	Filter_1_Init:
  26              	.LFB0:
  27              		.file 1 "Generated_Source\\PSoC5\\Filter_1.c"
   1:Generated_Source\PSoC5/Filter_1.c **** /*******************************************************************************
   2:Generated_Source\PSoC5/Filter_1.c **** * File Name: Filter_1.c
   3:Generated_Source\PSoC5/Filter_1.c **** * Version 2.30
   4:Generated_Source\PSoC5/Filter_1.c **** *
   5:Generated_Source\PSoC5/Filter_1.c **** * Description:
   6:Generated_Source\PSoC5/Filter_1.c **** *  This file provides the API source code for the FILT component.
   7:Generated_Source\PSoC5/Filter_1.c **** *
   8:Generated_Source\PSoC5/Filter_1.c **** * Note:
   9:Generated_Source\PSoC5/Filter_1.c **** *  
  10:Generated_Source\PSoC5/Filter_1.c **** *******************************************************************************
  11:Generated_Source\PSoC5/Filter_1.c **** * Copyright 2008-2013, Cypress Semiconductor Corporation.  All rights reserved.
  12:Generated_Source\PSoC5/Filter_1.c **** * You may use this file only in accordance with the license, terms, conditions, 
  13:Generated_Source\PSoC5/Filter_1.c **** * disclaimers, and limitations in the end user license agreement accompanying 
  14:Generated_Source\PSoC5/Filter_1.c **** * the software package with which this file was provided.
  15:Generated_Source\PSoC5/Filter_1.c **** ********************************************************************************/
  16:Generated_Source\PSoC5/Filter_1.c **** 
  17:Generated_Source\PSoC5/Filter_1.c **** #include "Filter_1_PVT.h"
  18:Generated_Source\PSoC5/Filter_1.c **** 
  19:Generated_Source\PSoC5/Filter_1.c **** 
  20:Generated_Source\PSoC5/Filter_1.c **** /*******************************************************************************
  21:Generated_Source\PSoC5/Filter_1.c **** * FILT component internal variables.
  22:Generated_Source\PSoC5/Filter_1.c **** *******************************************************************************/
  23:Generated_Source\PSoC5/Filter_1.c **** 
  24:Generated_Source\PSoC5/Filter_1.c **** uint8 Filter_1_initVar = 0x0u;
  25:Generated_Source\PSoC5/Filter_1.c **** 
  26:Generated_Source\PSoC5/Filter_1.c **** 
  27:Generated_Source\PSoC5/Filter_1.c **** /*******************************************************************************
  28:Generated_Source\PSoC5/Filter_1.c **** * Function Name: Filter_1_Init
  29:Generated_Source\PSoC5/Filter_1.c **** ********************************************************************************
  30:Generated_Source\PSoC5/Filter_1.c **** *
ARM GAS  C:\Users\ALVAROGA\AppData\Local\Temp\ccsbyCdW.s 			page 2


  31:Generated_Source\PSoC5/Filter_1.c **** * Summary:
  32:Generated_Source\PSoC5/Filter_1.c **** *  Initialize component's parameters to the parameters set by user in the 
  33:Generated_Source\PSoC5/Filter_1.c **** *  customizer of the component placed onto schematic. Usually called in 
  34:Generated_Source\PSoC5/Filter_1.c **** *  Filter_1_Start().
  35:Generated_Source\PSoC5/Filter_1.c **** *
  36:Generated_Source\PSoC5/Filter_1.c **** * Parameters:  
  37:Generated_Source\PSoC5/Filter_1.c **** *  void
  38:Generated_Source\PSoC5/Filter_1.c **** *
  39:Generated_Source\PSoC5/Filter_1.c **** * Return: 
  40:Generated_Source\PSoC5/Filter_1.c **** *  void
  41:Generated_Source\PSoC5/Filter_1.c **** *
  42:Generated_Source\PSoC5/Filter_1.c **** *******************************************************************************/
  43:Generated_Source\PSoC5/Filter_1.c **** void Filter_1_Init(void) 
  44:Generated_Source\PSoC5/Filter_1.c **** {
  28              		.loc 1 44 0
  29              		.cfi_startproc
  30              		@ args = 0, pretend = 0, frame = 0
  31              		@ frame_needed = 0, uses_anonymous_args = 0
  32 0000 F8B5     		push	{r3, r4, r5, r6, r7, lr}
  33              		.cfi_def_cfa_offset 24
  34              		.cfi_offset 3, -24
  35              		.cfi_offset 4, -20
  36              		.cfi_offset 5, -16
  37              		.cfi_offset 6, -12
  38              		.cfi_offset 7, -8
  39              		.cfi_offset 14, -4
  45:Generated_Source\PSoC5/Filter_1.c ****         /* Power on DFB before initializing the RAMs */
  46:Generated_Source\PSoC5/Filter_1.c ****     Filter_1_PM_ACT_CFG_REG |= Filter_1_PM_ACT_MSK;
  40              		.loc 1 46 0
  41 0002 244A     		ldr	r2, .L4
  42 0004 1378     		ldrb	r3, [r2]	@ zero_extendqisi2
  43 0006 43F01003 		orr	r3, r3, #16
  44 000a 1370     		strb	r3, [r2]
  47:Generated_Source\PSoC5/Filter_1.c **** 
  48:Generated_Source\PSoC5/Filter_1.c ****     /* Turn off Run Bit */
  49:Generated_Source\PSoC5/Filter_1.c ****     Filter_1_CR_REG &= (uint8)~Filter_1_RUN_MASK;
  45              		.loc 1 49 0
  46 000c 02F50342 		add	r2, r2, #33536
  47 0010 DA32     		adds	r2, r2, #218
  48 0012 1378     		ldrb	r3, [r2]	@ zero_extendqisi2
  49 0014 03F0FE03 		and	r3, r3, #254
  50 0018 1370     		strb	r3, [r2]
  50:Generated_Source\PSoC5/Filter_1.c ****                 
  51:Generated_Source\PSoC5/Filter_1.c ****     /* Enable the DFB RAMS */
  52:Generated_Source\PSoC5/Filter_1.c ****     Filter_1_RAM_EN_REG = Filter_1_RAM_DIR_BUS;
  51              		.loc 1 52 0
  52 001a 3F23     		movs	r3, #63
  53 001c 0832     		adds	r2, r2, #8
  54 001e 1370     		strb	r3, [r2]
  53:Generated_Source\PSoC5/Filter_1.c ****         
  54:Generated_Source\PSoC5/Filter_1.c ****     /* Put DFB RAM on the bus */
  55:Generated_Source\PSoC5/Filter_1.c ****     Filter_1_RAM_DIR_REG = Filter_1_RAM_DIR_BUS;
  55              		.loc 1 55 0
  56 0020 0432     		adds	r2, r2, #4
  57 0022 1370     		strb	r3, [r2]
  56:Generated_Source\PSoC5/Filter_1.c ****         
  57:Generated_Source\PSoC5/Filter_1.c ****     /* Write DFB RAMs */
ARM GAS  C:\Users\ALVAROGA\AppData\Local\Temp\ccsbyCdW.s 			page 3


  58:Generated_Source\PSoC5/Filter_1.c ****     /* Control Store RAMs */
  59:Generated_Source\PSoC5/Filter_1.c ****     (void)memcpy( Filter_1_CSA_RAM,
  58              		.loc 1 59 0
  59 0024 1C4D     		ldr	r5, .L4+4
  60 0026 4FF48074 		mov	r4, #256
  61 002a 2246     		mov	r2, r4
  62 002c 2946     		mov	r1, r5
  63 002e 1B48     		ldr	r0, .L4+8
  64 0030 FFF7FEFF 		bl	memcpy
  65              	.LVL0:
  60:Generated_Source\PSoC5/Filter_1.c ****         Filter_1_control, Filter_1_CSA_RAM_SIZE); 
  61:Generated_Source\PSoC5/Filter_1.c ****     (void)memcpy(Filter_1_CSB_RAM,
  66              		.loc 1 61 0
  67 0034 2246     		mov	r2, r4
  68 0036 2946     		mov	r1, r5
  69 0038 1948     		ldr	r0, .L4+12
  70 003a FFF7FEFF 		bl	memcpy
  71              	.LVL1:
  62:Generated_Source\PSoC5/Filter_1.c ****         Filter_1_control, Filter_1_CSB_RAM_SIZE); 
  63:Generated_Source\PSoC5/Filter_1.c ****     /* CFSM RAM */
  64:Generated_Source\PSoC5/Filter_1.c ****     (void)memcpy(Filter_1_CFSM_RAM,
  72              		.loc 1 64 0
  73 003e 2246     		mov	r2, r4
  74 0040 1849     		ldr	r1, .L4+16
  75 0042 1948     		ldr	r0, .L4+20
  76 0044 FFF7FEFF 		bl	memcpy
  77              	.LVL2:
  65:Generated_Source\PSoC5/Filter_1.c ****         Filter_1_cfsm, Filter_1_CFSM_RAM_SIZE); 
  66:Generated_Source\PSoC5/Filter_1.c ****     /* Data RAMs */
  67:Generated_Source\PSoC5/Filter_1.c ****     (void)memcpy(Filter_1_DA_RAM,
  78              		.loc 1 67 0
  79 0048 4FF40074 		mov	r4, #512
  80 004c 2246     		mov	r2, r4
  81 004e 1749     		ldr	r1, .L4+24
  82 0050 1748     		ldr	r0, .L4+28
  83 0052 FFF7FEFF 		bl	memcpy
  84              	.LVL3:
  68:Generated_Source\PSoC5/Filter_1.c ****         Filter_1_data_a, Filter_1_DA_RAM_SIZE); 
  69:Generated_Source\PSoC5/Filter_1.c ****     (void)memcpy(Filter_1_DB_RAM,
  85              		.loc 1 69 0
  86 0056 2246     		mov	r2, r4
  87 0058 1649     		ldr	r1, .L4+32
  88 005a 1748     		ldr	r0, .L4+36
  89 005c FFF7FEFF 		bl	memcpy
  90              	.LVL4:
  70:Generated_Source\PSoC5/Filter_1.c ****         Filter_1_data_b, Filter_1_DB_RAM_SIZE); 
  71:Generated_Source\PSoC5/Filter_1.c ****     /* ACU RAM */
  72:Generated_Source\PSoC5/Filter_1.c ****     (void)memcpy(Filter_1_ACU_RAM,
  91              		.loc 1 72 0
  92 0060 164C     		ldr	r4, .L4+40
  93 0062 174E     		ldr	r6, .L4+44
  94 0064 04F14007 		add	r7, r4, #64
  95              	.L2:
  96 0068 3546     		mov	r5, r6
  97 006a 2068     		ldr	r0, [r4]	@ unaligned
  98 006c 6168     		ldr	r1, [r4, #4]	@ unaligned
  99 006e A268     		ldr	r2, [r4, #8]	@ unaligned
ARM GAS  C:\Users\ALVAROGA\AppData\Local\Temp\ccsbyCdW.s 			page 4


 100 0070 E368     		ldr	r3, [r4, #12]	@ unaligned
 101 0072 0FC5     		stmia	r5!, {r0, r1, r2, r3}
 102 0074 1034     		adds	r4, r4, #16
 103 0076 2E46     		mov	r6, r5
 104 0078 BC42     		cmp	r4, r7
 105 007a F5D1     		bne	.L2
  73:Generated_Source\PSoC5/Filter_1.c ****         Filter_1_acu, Filter_1_ACU_RAM_SIZE); 
  74:Generated_Source\PSoC5/Filter_1.c **** 
  75:Generated_Source\PSoC5/Filter_1.c ****     /* Take DFB RAM off the bus */
  76:Generated_Source\PSoC5/Filter_1.c ****     Filter_1_RAM_DIR_REG = Filter_1_RAM_DIR_DFB;
 106              		.loc 1 76 0
 107 007c 0020     		movs	r0, #0
 108 007e 114B     		ldr	r3, .L4+48
 109 0080 1870     		strb	r0, [r3]
  77:Generated_Source\PSoC5/Filter_1.c **** 
  78:Generated_Source\PSoC5/Filter_1.c ****     /* Set up interrupt and DMA events */
  79:Generated_Source\PSoC5/Filter_1.c ****     Filter_1_SetInterruptMode(Filter_1_INIT_INTERRUPT_MODE);
 110              		.loc 1 79 0
 111 0082 FFF7FEFF 		bl	Filter_1_SetInterruptMode
 112              	.LVL5:
  80:Generated_Source\PSoC5/Filter_1.c ****     Filter_1_SetDMAMode(Filter_1_INIT_DMA_MODE);
 113              		.loc 1 80 0
 114 0086 0120     		movs	r0, #1
 115 0088 FFF7FEFF 		bl	Filter_1_SetDMAMode
 116              	.LVL6:
  81:Generated_Source\PSoC5/Filter_1.c ****         
  82:Generated_Source\PSoC5/Filter_1.c ****     /* Clear any pending interrupts */
  83:Generated_Source\PSoC5/Filter_1.c ****     /* Bits [2..0] of this register are readonly. */
  84:Generated_Source\PSoC5/Filter_1.c ****     Filter_1_SR_REG = 0xf8u;   
 117              		.loc 1 84 0
 118 008c F822     		movs	r2, #248
 119 008e 0E4B     		ldr	r3, .L4+52
 120 0090 1A70     		strb	r2, [r3]
 121 0092 F8BD     		pop	{r3, r4, r5, r6, r7, pc}
 122              	.L5:
 123              		.align	2
 124              	.L4:
 125 0094 A6430040 		.word	1073759142
 126 0098 00000000 		.word	Filter_1_control
 127 009c 00C40040 		.word	1073792000
 128 00a0 00C50040 		.word	1073792256
 129 00a4 00000000 		.word	Filter_1_cfsm
 130 00a8 00C60040 		.word	1073792512
 131 00ac 00000000 		.word	Filter_1_data_a
 132 00b0 00C00040 		.word	1073790976
 133 00b4 00000000 		.word	Filter_1_data_b
 134 00b8 00C20040 		.word	1073791488
 135 00bc 00000000 		.word	Filter_1_acu
 136 00c0 00C70040 		.word	1073792768
 137 00c4 8CC70040 		.word	1073792908
 138 00c8 84C70040 		.word	1073792900
 139              		.cfi_endproc
 140              	.LFE0:
 141              		.size	Filter_1_Init, .-Filter_1_Init
 142              		.section	.text.Filter_1_Enable,"ax",%progbits
 143              		.align	2
 144              		.global	Filter_1_Enable
ARM GAS  C:\Users\ALVAROGA\AppData\Local\Temp\ccsbyCdW.s 			page 5


 145              		.thumb
 146              		.thumb_func
 147              		.type	Filter_1_Enable, %function
 148              	Filter_1_Enable:
 149              	.LFB1:
  85:Generated_Source\PSoC5/Filter_1.c **** }
  86:Generated_Source\PSoC5/Filter_1.c **** 
  87:Generated_Source\PSoC5/Filter_1.c **** 
  88:Generated_Source\PSoC5/Filter_1.c **** /*******************************************************************************
  89:Generated_Source\PSoC5/Filter_1.c **** * Function Name: Filter_1_Enable
  90:Generated_Source\PSoC5/Filter_1.c **** ********************************************************************************
  91:Generated_Source\PSoC5/Filter_1.c **** *  
  92:Generated_Source\PSoC5/Filter_1.c **** * Summary: 
  93:Generated_Source\PSoC5/Filter_1.c **** *  Enables the DFB run bit.
  94:Generated_Source\PSoC5/Filter_1.c **** *
  95:Generated_Source\PSoC5/Filter_1.c **** * Parameters:  
  96:Generated_Source\PSoC5/Filter_1.c **** *  void
  97:Generated_Source\PSoC5/Filter_1.c **** *
  98:Generated_Source\PSoC5/Filter_1.c **** * Return: 
  99:Generated_Source\PSoC5/Filter_1.c **** *  void
 100:Generated_Source\PSoC5/Filter_1.c **** *
 101:Generated_Source\PSoC5/Filter_1.c **** *******************************************************************************/
 102:Generated_Source\PSoC5/Filter_1.c **** void Filter_1_Enable(void) 
 103:Generated_Source\PSoC5/Filter_1.c **** {
 150              		.loc 1 103 0
 151              		.cfi_startproc
 152              		@ args = 0, pretend = 0, frame = 0
 153              		@ frame_needed = 0, uses_anonymous_args = 0
 154              		@ link register save eliminated.
 104:Generated_Source\PSoC5/Filter_1.c ****     /* Power on DFB in Active mode */
 105:Generated_Source\PSoC5/Filter_1.c ****     Filter_1_PM_ACT_CFG_REG |= Filter_1_PM_ACT_MSK;
 155              		.loc 1 105 0
 156 0000 084A     		ldr	r2, .L7
 157 0002 1378     		ldrb	r3, [r2]	@ zero_extendqisi2
 158 0004 43F01003 		orr	r3, r3, #16
 159 0008 1370     		strb	r3, [r2]
 106:Generated_Source\PSoC5/Filter_1.c ****         
 107:Generated_Source\PSoC5/Filter_1.c ****     /* Power on DFB in Alternative Active mode */
 108:Generated_Source\PSoC5/Filter_1.c ****     Filter_1_PM_STBY_CFG_REG |= Filter_1_PM_STBY_MSK;
 160              		.loc 1 108 0
 161 000a 1032     		adds	r2, r2, #16
 162 000c 1378     		ldrb	r3, [r2]	@ zero_extendqisi2
 163 000e 43F01003 		orr	r3, r3, #16
 164 0012 1370     		strb	r3, [r2]
 109:Generated_Source\PSoC5/Filter_1.c **** 
 110:Generated_Source\PSoC5/Filter_1.c ****     /* Turn on Run Bit */
 111:Generated_Source\PSoC5/Filter_1.c ****     Filter_1_CR_REG |= Filter_1_RUN_MASK;
 165              		.loc 1 111 0
 166 0014 02F50342 		add	r2, r2, #33536
 167 0018 CA32     		adds	r2, r2, #202
 168 001a 1378     		ldrb	r3, [r2]	@ zero_extendqisi2
 169 001c 43F00103 		orr	r3, r3, #1
 170 0020 1370     		strb	r3, [r2]
 171 0022 7047     		bx	lr
 172              	.L8:
 173              		.align	2
 174              	.L7:
ARM GAS  C:\Users\ALVAROGA\AppData\Local\Temp\ccsbyCdW.s 			page 6


 175 0024 A6430040 		.word	1073759142
 176              		.cfi_endproc
 177              	.LFE1:
 178              		.size	Filter_1_Enable, .-Filter_1_Enable
 179              		.section	.text.Filter_1_Start,"ax",%progbits
 180              		.align	2
 181              		.global	Filter_1_Start
 182              		.thumb
 183              		.thumb_func
 184              		.type	Filter_1_Start, %function
 185              	Filter_1_Start:
 186              	.LFB2:
 112:Generated_Source\PSoC5/Filter_1.c **** }
 113:Generated_Source\PSoC5/Filter_1.c **** 
 114:Generated_Source\PSoC5/Filter_1.c **** 
 115:Generated_Source\PSoC5/Filter_1.c **** /*******************************************************************************
 116:Generated_Source\PSoC5/Filter_1.c **** * Function Name: Filter_1_Start
 117:Generated_Source\PSoC5/Filter_1.c **** ********************************************************************************
 118:Generated_Source\PSoC5/Filter_1.c **** *
 119:Generated_Source\PSoC5/Filter_1.c **** * Summary:
 120:Generated_Source\PSoC5/Filter_1.c **** *  This method does the prep work necessary to setup DFB.  This includes loading 
 121:Generated_Source\PSoC5/Filter_1.c **** *
 122:Generated_Source\PSoC5/Filter_1.c **** * Parameters:  
 123:Generated_Source\PSoC5/Filter_1.c **** *  void
 124:Generated_Source\PSoC5/Filter_1.c **** * 
 125:Generated_Source\PSoC5/Filter_1.c **** * Return: 
 126:Generated_Source\PSoC5/Filter_1.c **** *  void
 127:Generated_Source\PSoC5/Filter_1.c **** *
 128:Generated_Source\PSoC5/Filter_1.c **** * Global variables:
 129:Generated_Source\PSoC5/Filter_1.c **** *  Filter_1_initVar:  Used to check the initial configuration,
 130:Generated_Source\PSoC5/Filter_1.c **** *  modified when this function is called for the first time.
 131:Generated_Source\PSoC5/Filter_1.c **** *
 132:Generated_Source\PSoC5/Filter_1.c **** * Note: 
 133:Generated_Source\PSoC5/Filter_1.c **** *  Use Filter_1_InterruptConfig to control which events trigger 
 134:Generated_Source\PSoC5/Filter_1.c **** *  interrupts in the DFB. 
 135:Generated_Source\PSoC5/Filter_1.c **** *
 136:Generated_Source\PSoC5/Filter_1.c **** *******************************************************************************/
 137:Generated_Source\PSoC5/Filter_1.c **** void Filter_1_Start(void) 
 138:Generated_Source\PSoC5/Filter_1.c **** {
 187              		.loc 1 138 0
 188              		.cfi_startproc
 189              		@ args = 0, pretend = 0, frame = 0
 190              		@ frame_needed = 0, uses_anonymous_args = 0
 191 0000 08B5     		push	{r3, lr}
 192              		.cfi_def_cfa_offset 8
 193              		.cfi_offset 3, -8
 194              		.cfi_offset 14, -4
 139:Generated_Source\PSoC5/Filter_1.c ****      /* If not Initialized then initialize all required hardware and software */
 140:Generated_Source\PSoC5/Filter_1.c ****     if(Filter_1_initVar == 0u)
 195              		.loc 1 140 0
 196 0002 054B     		ldr	r3, .L12
 197 0004 1B78     		ldrb	r3, [r3]	@ zero_extendqisi2
 198 0006 23B9     		cbnz	r3, .L10
 141:Generated_Source\PSoC5/Filter_1.c ****     {
 142:Generated_Source\PSoC5/Filter_1.c ****         Filter_1_Init();
 199              		.loc 1 142 0
 200 0008 FFF7FEFF 		bl	Filter_1_Init
ARM GAS  C:\Users\ALVAROGA\AppData\Local\Temp\ccsbyCdW.s 			page 7


 201              	.LVL7:
 143:Generated_Source\PSoC5/Filter_1.c ****         Filter_1_initVar = 1u;
 202              		.loc 1 143 0
 203 000c 0122     		movs	r2, #1
 204 000e 024B     		ldr	r3, .L12
 205 0010 1A70     		strb	r2, [r3]
 206              	.L10:
 144:Generated_Source\PSoC5/Filter_1.c ****     }
 145:Generated_Source\PSoC5/Filter_1.c **** 
 146:Generated_Source\PSoC5/Filter_1.c ****     /* Enable the DFB block */
 147:Generated_Source\PSoC5/Filter_1.c ****     Filter_1_Enable();
 207              		.loc 1 147 0
 208 0012 FFF7FEFF 		bl	Filter_1_Enable
 209              	.LVL8:
 210 0016 08BD     		pop	{r3, pc}
 211              	.L13:
 212              		.align	2
 213              	.L12:
 214 0018 00000000 		.word	.LANCHOR0
 215              		.cfi_endproc
 216              	.LFE2:
 217              		.size	Filter_1_Start, .-Filter_1_Start
 218              		.section	.text.Filter_1_Stop,"ax",%progbits
 219              		.align	2
 220              		.global	Filter_1_Stop
 221              		.thumb
 222              		.thumb_func
 223              		.type	Filter_1_Stop, %function
 224              	Filter_1_Stop:
 225              	.LFB3:
 148:Generated_Source\PSoC5/Filter_1.c **** }
 149:Generated_Source\PSoC5/Filter_1.c **** 
 150:Generated_Source\PSoC5/Filter_1.c **** 
 151:Generated_Source\PSoC5/Filter_1.c **** /*******************************************************************************
 152:Generated_Source\PSoC5/Filter_1.c **** * Function Name: Filter_1_Stop
 153:Generated_Source\PSoC5/Filter_1.c **** ********************************************************************************
 154:Generated_Source\PSoC5/Filter_1.c **** *
 155:Generated_Source\PSoC5/Filter_1.c **** * Summary:
 156:Generated_Source\PSoC5/Filter_1.c **** *  Turn off the run bit.  If DMA control is used to feed the channels, allow 
 157:Generated_Source\PSoC5/Filter_1.c **** *  arguments to turn one of the TD channels off. 
 158:Generated_Source\PSoC5/Filter_1.c **** *
 159:Generated_Source\PSoC5/Filter_1.c **** * Parameters:  
 160:Generated_Source\PSoC5/Filter_1.c **** *  void
 161:Generated_Source\PSoC5/Filter_1.c **** *
 162:Generated_Source\PSoC5/Filter_1.c **** * Return: 
 163:Generated_Source\PSoC5/Filter_1.c **** *  void
 164:Generated_Source\PSoC5/Filter_1.c **** *
 165:Generated_Source\PSoC5/Filter_1.c **** *******************************************************************************/
 166:Generated_Source\PSoC5/Filter_1.c **** void Filter_1_Stop(void) 
 167:Generated_Source\PSoC5/Filter_1.c **** {
 226              		.loc 1 167 0
 227              		.cfi_startproc
 228              		@ args = 0, pretend = 0, frame = 0
 229              		@ frame_needed = 0, uses_anonymous_args = 0
 230              		@ link register save eliminated.
 168:Generated_Source\PSoC5/Filter_1.c ****     Filter_1_CR_REG &= (uint8)~(Filter_1_RUN_MASK);
 231              		.loc 1 168 0
ARM GAS  C:\Users\ALVAROGA\AppData\Local\Temp\ccsbyCdW.s 			page 8


 232 0000 084A     		ldr	r2, .L15
 233 0002 1378     		ldrb	r3, [r2]	@ zero_extendqisi2
 234 0004 03F0FE03 		and	r3, r3, #254
 235 0008 1370     		strb	r3, [r2]
 169:Generated_Source\PSoC5/Filter_1.c **** 
 170:Generated_Source\PSoC5/Filter_1.c ****     /* Power off DFB in Active mode */
 171:Generated_Source\PSoC5/Filter_1.c ****     Filter_1_PM_ACT_CFG_REG &= (uint8)~Filter_1_PM_ACT_MSK;
 236              		.loc 1 171 0
 237 000a A2F50342 		sub	r2, r2, #33536
 238 000e DA3A     		subs	r2, r2, #218
 239 0010 1378     		ldrb	r3, [r2]	@ zero_extendqisi2
 240 0012 03F0EF03 		and	r3, r3, #239
 241 0016 1370     		strb	r3, [r2]
 172:Generated_Source\PSoC5/Filter_1.c ****     
 173:Generated_Source\PSoC5/Filter_1.c ****     /* Power off DFB in Alternative Active mode */
 174:Generated_Source\PSoC5/Filter_1.c ****     Filter_1_PM_STBY_CFG_REG &= (uint8)~Filter_1_PM_STBY_MSK;
 242              		.loc 1 174 0
 243 0018 1032     		adds	r2, r2, #16
 244 001a 1378     		ldrb	r3, [r2]	@ zero_extendqisi2
 245 001c 03F0EF03 		and	r3, r3, #239
 246 0020 1370     		strb	r3, [r2]
 247 0022 7047     		bx	lr
 248              	.L16:
 249              		.align	2
 250              	.L15:
 251 0024 80C70040 		.word	1073792896
 252              		.cfi_endproc
 253              	.LFE3:
 254              		.size	Filter_1_Stop, .-Filter_1_Stop
 255              		.section	.text.Filter_1_Read8,"ax",%progbits
 256              		.align	2
 257              		.global	Filter_1_Read8
 258              		.thumb
 259              		.thumb_func
 260              		.type	Filter_1_Read8, %function
 261              	Filter_1_Read8:
 262              	.LFB4:
 175:Generated_Source\PSoC5/Filter_1.c **** }
 176:Generated_Source\PSoC5/Filter_1.c **** 
 177:Generated_Source\PSoC5/Filter_1.c **** 
 178:Generated_Source\PSoC5/Filter_1.c **** /*******************************************************************************
 179:Generated_Source\PSoC5/Filter_1.c **** * Function Name: Filter_1_Read8
 180:Generated_Source\PSoC5/Filter_1.c **** ********************************************************************************
 181:Generated_Source\PSoC5/Filter_1.c **** *
 182:Generated_Source\PSoC5/Filter_1.c **** * Summary:
 183:Generated_Source\PSoC5/Filter_1.c **** *  Get the value in one of the DFB Output Holding Registers 
 184:Generated_Source\PSoC5/Filter_1.c **** *
 185:Generated_Source\PSoC5/Filter_1.c **** * Parameters:  
 186:Generated_Source\PSoC5/Filter_1.c **** *  channel:  Filter_1_CHANNEL_A or Filter_1_CHANNEL_B
 187:Generated_Source\PSoC5/Filter_1.c **** *            
 188:Generated_Source\PSoC5/Filter_1.c **** * Return: 
 189:Generated_Source\PSoC5/Filter_1.c **** *  The most significant 8 bits of the current output value sitting in the 
 190:Generated_Source\PSoC5/Filter_1.c **** *  selected channel's holding register or 0x00 for invalid channel numbers.
 191:Generated_Source\PSoC5/Filter_1.c **** *
 192:Generated_Source\PSoC5/Filter_1.c **** *******************************************************************************/
 193:Generated_Source\PSoC5/Filter_1.c **** uint8 Filter_1_Read8(uint8 channel) 
 194:Generated_Source\PSoC5/Filter_1.c **** {
ARM GAS  C:\Users\ALVAROGA\AppData\Local\Temp\ccsbyCdW.s 			page 9


 263              		.loc 1 194 0
 264              		.cfi_startproc
 265              		@ args = 0, pretend = 0, frame = 0
 266              		@ frame_needed = 0, uses_anonymous_args = 0
 267              		@ link register save eliminated.
 268              	.LVL9:
 195:Generated_Source\PSoC5/Filter_1.c ****     uint8 value;
 196:Generated_Source\PSoC5/Filter_1.c **** 
 197:Generated_Source\PSoC5/Filter_1.c ****     if (channel == Filter_1_CHANNEL_A)
 269              		.loc 1 197 0
 270 0000 18B9     		cbnz	r0, .L18
 198:Generated_Source\PSoC5/Filter_1.c ****     {
 199:Generated_Source\PSoC5/Filter_1.c ****         value = Filter_1_HOLDAH_REG;
 271              		.loc 1 199 0
 272 0002 064B     		ldr	r3, .L21
 273 0004 1878     		ldrb	r0, [r3]	@ zero_extendqisi2
 274              	.LVL10:
 275 0006 C0B2     		uxtb	r0, r0
 276              	.LVL11:
 277 0008 7047     		bx	lr
 278              	.LVL12:
 279              	.L18:
 200:Generated_Source\PSoC5/Filter_1.c ****     }
 201:Generated_Source\PSoC5/Filter_1.c ****     else if (channel == Filter_1_CHANNEL_B)
 280              		.loc 1 201 0
 281 000a 0128     		cmp	r0, #1
 282 000c 03D1     		bne	.L20
 202:Generated_Source\PSoC5/Filter_1.c ****     {
 203:Generated_Source\PSoC5/Filter_1.c ****         value = Filter_1_HOLDBH_REG;
 283              		.loc 1 203 0
 284 000e 044B     		ldr	r3, .L21+4
 285 0010 1878     		ldrb	r0, [r3]	@ zero_extendqisi2
 286              	.LVL13:
 287 0012 C0B2     		uxtb	r0, r0
 288              	.LVL14:
 289 0014 7047     		bx	lr
 290              	.LVL15:
 291              	.L20:
 204:Generated_Source\PSoC5/Filter_1.c ****     }
 205:Generated_Source\PSoC5/Filter_1.c ****     else
 206:Generated_Source\PSoC5/Filter_1.c ****     {
 207:Generated_Source\PSoC5/Filter_1.c ****         value = 0x0u;
 292              		.loc 1 207 0
 293 0016 0020     		movs	r0, #0
 294              	.LVL16:
 208:Generated_Source\PSoC5/Filter_1.c ****     }
 209:Generated_Source\PSoC5/Filter_1.c ****     return value;
 210:Generated_Source\PSoC5/Filter_1.c **** }
 295              		.loc 1 210 0
 296 0018 7047     		bx	lr
 297              	.L22:
 298 001a 00BF     		.align	2
 299              	.L21:
 300 001c AAC70040 		.word	1073792938
 301 0020 AEC70040 		.word	1073792942
 302              		.cfi_endproc
 303              	.LFE4:
ARM GAS  C:\Users\ALVAROGA\AppData\Local\Temp\ccsbyCdW.s 			page 10


 304              		.size	Filter_1_Read8, .-Filter_1_Read8
 305              		.section	.text.Filter_1_Read16,"ax",%progbits
 306              		.align	2
 307              		.global	Filter_1_Read16
 308              		.thumb
 309              		.thumb_func
 310              		.type	Filter_1_Read16, %function
 311              	Filter_1_Read16:
 312              	.LFB5:
 211:Generated_Source\PSoC5/Filter_1.c **** 
 212:Generated_Source\PSoC5/Filter_1.c **** 
 213:Generated_Source\PSoC5/Filter_1.c **** /*******************************************************************************
 214:Generated_Source\PSoC5/Filter_1.c **** * Function Name: Filter_1_Read16
 215:Generated_Source\PSoC5/Filter_1.c **** ********************************************************************************
 216:Generated_Source\PSoC5/Filter_1.c **** *
 217:Generated_Source\PSoC5/Filter_1.c **** * Summary:
 218:Generated_Source\PSoC5/Filter_1.c **** *  Get the value in one of the DFB Output Holding Registers 
 219:Generated_Source\PSoC5/Filter_1.c **** *
 220:Generated_Source\PSoC5/Filter_1.c **** * Parameters:  
 221:Generated_Source\PSoC5/Filter_1.c **** *  channel:  Filter_1_CHANNEL_A or Filter_1_CHANNEL_B
 222:Generated_Source\PSoC5/Filter_1.c **** *            
 223:Generated_Source\PSoC5/Filter_1.c **** * Return: 
 224:Generated_Source\PSoC5/Filter_1.c **** *  The most significant 16 bits of the current output value sitting in the 
 225:Generated_Source\PSoC5/Filter_1.c **** *  selected channel's holding register or 0x0000 for invalid channel numbers
 226:Generated_Source\PSoC5/Filter_1.c **** *
 227:Generated_Source\PSoC5/Filter_1.c **** * Note:
 228:Generated_Source\PSoC5/Filter_1.c **** *  Order of the read is important.  On the read of the high byte, the DFB clears
 229:Generated_Source\PSoC5/Filter_1.c **** *  the data ready bit.
 230:Generated_Source\PSoC5/Filter_1.c **** *
 231:Generated_Source\PSoC5/Filter_1.c **** *******************************************************************************/
 232:Generated_Source\PSoC5/Filter_1.c **** #if defined(__C51__) || defined(__CX51__) 
 233:Generated_Source\PSoC5/Filter_1.c **** 
 234:Generated_Source\PSoC5/Filter_1.c ****     uint16 Filter_1_Read16(uint8 channel) 
 235:Generated_Source\PSoC5/Filter_1.c ****     {
 236:Generated_Source\PSoC5/Filter_1.c ****         uint16 val;
 237:Generated_Source\PSoC5/Filter_1.c ****     
 238:Generated_Source\PSoC5/Filter_1.c ****         if (channel == Filter_1_CHANNEL_A)
 239:Generated_Source\PSoC5/Filter_1.c ****         {        
 240:Generated_Source\PSoC5/Filter_1.c ****             val = Filter_1_HOLDAM_REG;
 241:Generated_Source\PSoC5/Filter_1.c ****             val |= (uint16)(Filter_1_HOLDAH_REG) << 8u;
 242:Generated_Source\PSoC5/Filter_1.c ****         }
 243:Generated_Source\PSoC5/Filter_1.c ****         else if (channel == Filter_1_CHANNEL_B)
 244:Generated_Source\PSoC5/Filter_1.c ****         {      
 245:Generated_Source\PSoC5/Filter_1.c ****             val = Filter_1_HOLDBM_REG;
 246:Generated_Source\PSoC5/Filter_1.c ****             val |= (uint16)Filter_1_HOLDBH_REG << 8u;
 247:Generated_Source\PSoC5/Filter_1.c ****         }
 248:Generated_Source\PSoC5/Filter_1.c ****         else
 249:Generated_Source\PSoC5/Filter_1.c ****         {
 250:Generated_Source\PSoC5/Filter_1.c ****             val = 0x0u;
 251:Generated_Source\PSoC5/Filter_1.c ****         }
 252:Generated_Source\PSoC5/Filter_1.c ****         return val;
 253:Generated_Source\PSoC5/Filter_1.c ****     }
 254:Generated_Source\PSoC5/Filter_1.c **** 
 255:Generated_Source\PSoC5/Filter_1.c **** #else
 256:Generated_Source\PSoC5/Filter_1.c **** 
 257:Generated_Source\PSoC5/Filter_1.c ****     uint16 Filter_1_Read16(uint8 channel) 
 258:Generated_Source\PSoC5/Filter_1.c ****     {
ARM GAS  C:\Users\ALVAROGA\AppData\Local\Temp\ccsbyCdW.s 			page 11


 313              		.loc 1 258 0
 314              		.cfi_startproc
 315              		@ args = 0, pretend = 0, frame = 0
 316              		@ frame_needed = 0, uses_anonymous_args = 0
 317              		@ link register save eliminated.
 318              	.LVL17:
 259:Generated_Source\PSoC5/Filter_1.c ****         uint16 val;
 260:Generated_Source\PSoC5/Filter_1.c **** 
 261:Generated_Source\PSoC5/Filter_1.c ****         if (channel == Filter_1_CHANNEL_A)
 319              		.loc 1 261 0
 320 0000 10B9     		cbnz	r0, .L24
 262:Generated_Source\PSoC5/Filter_1.c ****         {        
 263:Generated_Source\PSoC5/Filter_1.c ****             val = Filter_1_HOLDA16_REG;
 321              		.loc 1 263 0
 322 0002 054B     		ldr	r3, .L27
 323 0004 1888     		ldrh	r0, [r3]	@ unaligned
 324              	.LVL18:
 325 0006 7047     		bx	lr
 326              	.LVL19:
 327              	.L24:
 264:Generated_Source\PSoC5/Filter_1.c ****         }
 265:Generated_Source\PSoC5/Filter_1.c ****         else if (channel == Filter_1_CHANNEL_B)
 328              		.loc 1 265 0
 329 0008 0128     		cmp	r0, #1
 330 000a 02D1     		bne	.L26
 266:Generated_Source\PSoC5/Filter_1.c ****         {      
 267:Generated_Source\PSoC5/Filter_1.c ****             val = Filter_1_HOLDB16_REG;
 331              		.loc 1 267 0
 332 000c 034B     		ldr	r3, .L27+4
 333 000e 1888     		ldrh	r0, [r3]	@ unaligned
 334              	.LVL20:
 335 0010 7047     		bx	lr
 336              	.LVL21:
 337              	.L26:
 268:Generated_Source\PSoC5/Filter_1.c ****         }
 269:Generated_Source\PSoC5/Filter_1.c ****         else
 270:Generated_Source\PSoC5/Filter_1.c ****         {
 271:Generated_Source\PSoC5/Filter_1.c ****             val = 0x0u;
 338              		.loc 1 271 0
 339 0012 0020     		movs	r0, #0
 340              	.LVL22:
 272:Generated_Source\PSoC5/Filter_1.c ****         }
 273:Generated_Source\PSoC5/Filter_1.c ****         return val;
 274:Generated_Source\PSoC5/Filter_1.c ****     }
 341              		.loc 1 274 0
 342 0014 7047     		bx	lr
 343              	.L28:
 344 0016 00BF     		.align	2
 345              	.L27:
 346 0018 A9C70040 		.word	1073792937
 347 001c ADC70040 		.word	1073792941
 348              		.cfi_endproc
 349              	.LFE5:
 350              		.size	Filter_1_Read16, .-Filter_1_Read16
 351              		.section	.text.Filter_1_Read24,"ax",%progbits
 352              		.align	2
 353              		.global	Filter_1_Read24
ARM GAS  C:\Users\ALVAROGA\AppData\Local\Temp\ccsbyCdW.s 			page 12


 354              		.thumb
 355              		.thumb_func
 356              		.type	Filter_1_Read24, %function
 357              	Filter_1_Read24:
 358              	.LFB6:
 275:Generated_Source\PSoC5/Filter_1.c **** 
 276:Generated_Source\PSoC5/Filter_1.c **** #endif /* defined(__C51__) || defined(__CX51__) */
 277:Generated_Source\PSoC5/Filter_1.c **** 
 278:Generated_Source\PSoC5/Filter_1.c **** 
 279:Generated_Source\PSoC5/Filter_1.c **** /*******************************************************************************
 280:Generated_Source\PSoC5/Filter_1.c **** * Function Name: Filter_1_Read24
 281:Generated_Source\PSoC5/Filter_1.c **** ********************************************************************************
 282:Generated_Source\PSoC5/Filter_1.c **** *
 283:Generated_Source\PSoC5/Filter_1.c **** * Summary:
 284:Generated_Source\PSoC5/Filter_1.c **** *  Get the value in one of the DFB Output Holding Registers 
 285:Generated_Source\PSoC5/Filter_1.c **** *
 286:Generated_Source\PSoC5/Filter_1.c **** * Parameters:  
 287:Generated_Source\PSoC5/Filter_1.c **** *  channel:  Filter_1_CHANNEL_A or Filter_1_CHANNEL_B
 288:Generated_Source\PSoC5/Filter_1.c **** *            
 289:Generated_Source\PSoC5/Filter_1.c **** * Return: 
 290:Generated_Source\PSoC5/Filter_1.c **** *  The current 24-bit output value sitting in the selected channel's
 291:Generated_Source\PSoC5/Filter_1.c **** *  holding register or 0x00000000 for invalid channel numbers
 292:Generated_Source\PSoC5/Filter_1.c **** *
 293:Generated_Source\PSoC5/Filter_1.c **** * Note:
 294:Generated_Source\PSoC5/Filter_1.c **** *  Order of the read is important.  On the read of the high byte, the DFB clears
 295:Generated_Source\PSoC5/Filter_1.c **** *  the data ready bit.
 296:Generated_Source\PSoC5/Filter_1.c **** *
 297:Generated_Source\PSoC5/Filter_1.c **** *******************************************************************************/
 298:Generated_Source\PSoC5/Filter_1.c **** #if defined(__C51__) || defined(__CX51__)
 299:Generated_Source\PSoC5/Filter_1.c **** 
 300:Generated_Source\PSoC5/Filter_1.c ****     uint32 Filter_1_Read24(uint8 channel) 
 301:Generated_Source\PSoC5/Filter_1.c ****     {
 302:Generated_Source\PSoC5/Filter_1.c ****         uint32 val;
 303:Generated_Source\PSoC5/Filter_1.c ****     
 304:Generated_Source\PSoC5/Filter_1.c ****         if (channel == Filter_1_CHANNEL_A)
 305:Generated_Source\PSoC5/Filter_1.c ****         {        
 306:Generated_Source\PSoC5/Filter_1.c ****             val = Filter_1_HOLDA_REG;
 307:Generated_Source\PSoC5/Filter_1.c ****             val |= (uint32)(Filter_1_HOLDAM_REG) << 8u;
 308:Generated_Source\PSoC5/Filter_1.c ****             val |= (uint32)(Filter_1_HOLDAH_REG) << 16u;
 309:Generated_Source\PSoC5/Filter_1.c ****             
 310:Generated_Source\PSoC5/Filter_1.c ****             /* SignExtend */
 311:Generated_Source\PSoC5/Filter_1.c ****             if((val & Filter_1_SIGN_BIT) == Filter_1_SIGN_BIT)
 312:Generated_Source\PSoC5/Filter_1.c ****             {    
 313:Generated_Source\PSoC5/Filter_1.c **** 				val |= Filter_1_SIGN_BYTE;
 314:Generated_Source\PSoC5/Filter_1.c **** 			}
 315:Generated_Source\PSoC5/Filter_1.c ****         }
 316:Generated_Source\PSoC5/Filter_1.c ****         else if (channel == Filter_1_CHANNEL_B)
 317:Generated_Source\PSoC5/Filter_1.c ****         {      
 318:Generated_Source\PSoC5/Filter_1.c ****             val = Filter_1_HOLDB_REG;
 319:Generated_Source\PSoC5/Filter_1.c ****             val |= (uint32)Filter_1_HOLDBM_REG << 8u;
 320:Generated_Source\PSoC5/Filter_1.c ****             val |= (uint32)Filter_1_HOLDBH_REG << 16u;
 321:Generated_Source\PSoC5/Filter_1.c ****             
 322:Generated_Source\PSoC5/Filter_1.c ****             /* SignExtend */
 323:Generated_Source\PSoC5/Filter_1.c ****             if((val & Filter_1_SIGN_BIT) == Filter_1_SIGN_BIT)
 324:Generated_Source\PSoC5/Filter_1.c ****             {
 325:Generated_Source\PSoC5/Filter_1.c **** 				val |= Filter_1_SIGN_BYTE;
 326:Generated_Source\PSoC5/Filter_1.c **** 			}
ARM GAS  C:\Users\ALVAROGA\AppData\Local\Temp\ccsbyCdW.s 			page 13


 327:Generated_Source\PSoC5/Filter_1.c ****         }
 328:Generated_Source\PSoC5/Filter_1.c ****         else
 329:Generated_Source\PSoC5/Filter_1.c ****         {
 330:Generated_Source\PSoC5/Filter_1.c ****             val = 0x0u;
 331:Generated_Source\PSoC5/Filter_1.c ****         }
 332:Generated_Source\PSoC5/Filter_1.c ****         return val;
 333:Generated_Source\PSoC5/Filter_1.c ****     }
 334:Generated_Source\PSoC5/Filter_1.c **** 
 335:Generated_Source\PSoC5/Filter_1.c **** #else
 336:Generated_Source\PSoC5/Filter_1.c **** 
 337:Generated_Source\PSoC5/Filter_1.c ****     uint32 Filter_1_Read24(uint8 channel) 
 338:Generated_Source\PSoC5/Filter_1.c ****     {
 359              		.loc 1 338 0
 360              		.cfi_startproc
 361              		@ args = 0, pretend = 0, frame = 0
 362              		@ frame_needed = 0, uses_anonymous_args = 0
 363              		@ link register save eliminated.
 364              	.LVL23:
 339:Generated_Source\PSoC5/Filter_1.c ****         uint32 val;
 340:Generated_Source\PSoC5/Filter_1.c ****          
 341:Generated_Source\PSoC5/Filter_1.c ****         if (channel == Filter_1_CHANNEL_A)
 365              		.loc 1 341 0
 366 0000 10B9     		cbnz	r0, .L30
 342:Generated_Source\PSoC5/Filter_1.c ****         {        
 343:Generated_Source\PSoC5/Filter_1.c ****             val = Filter_1_HOLDA24_REG;
 367              		.loc 1 343 0
 368 0002 054B     		ldr	r3, .L33
 369 0004 1868     		ldr	r0, [r3]
 370              	.LVL24:
 371 0006 7047     		bx	lr
 372              	.LVL25:
 373              	.L30:
 344:Generated_Source\PSoC5/Filter_1.c ****         }
 345:Generated_Source\PSoC5/Filter_1.c ****         else if (channel == Filter_1_CHANNEL_B)
 374              		.loc 1 345 0
 375 0008 0128     		cmp	r0, #1
 376 000a 02D1     		bne	.L32
 346:Generated_Source\PSoC5/Filter_1.c ****         {      
 347:Generated_Source\PSoC5/Filter_1.c ****             val = Filter_1_HOLDB24_REG;
 377              		.loc 1 347 0
 378 000c 034B     		ldr	r3, .L33+4
 379 000e 1868     		ldr	r0, [r3]
 380              	.LVL26:
 381 0010 7047     		bx	lr
 382              	.LVL27:
 383              	.L32:
 348:Generated_Source\PSoC5/Filter_1.c ****         }
 349:Generated_Source\PSoC5/Filter_1.c ****         else
 350:Generated_Source\PSoC5/Filter_1.c ****         {
 351:Generated_Source\PSoC5/Filter_1.c ****             val = 0x0u;
 384              		.loc 1 351 0
 385 0012 0020     		movs	r0, #0
 386              	.LVL28:
 352:Generated_Source\PSoC5/Filter_1.c ****         }
 353:Generated_Source\PSoC5/Filter_1.c ****         return val;
 354:Generated_Source\PSoC5/Filter_1.c ****     }
 387              		.loc 1 354 0
ARM GAS  C:\Users\ALVAROGA\AppData\Local\Temp\ccsbyCdW.s 			page 14


 388 0014 7047     		bx	lr
 389              	.L34:
 390 0016 00BF     		.align	2
 391              	.L33:
 392 0018 A8C70040 		.word	1073792936
 393 001c ACC70040 		.word	1073792940
 394              		.cfi_endproc
 395              	.LFE6:
 396              		.size	Filter_1_Read24, .-Filter_1_Read24
 397              		.section	.text.Filter_1_Write8,"ax",%progbits
 398              		.align	2
 399              		.global	Filter_1_Write8
 400              		.thumb
 401              		.thumb_func
 402              		.type	Filter_1_Write8, %function
 403              	Filter_1_Write8:
 404              	.LFB7:
 355:Generated_Source\PSoC5/Filter_1.c **** 
 356:Generated_Source\PSoC5/Filter_1.c **** #endif /* defined(__C51__) || defined(__CX51__) */
 357:Generated_Source\PSoC5/Filter_1.c **** 
 358:Generated_Source\PSoC5/Filter_1.c **** 
 359:Generated_Source\PSoC5/Filter_1.c **** /*******************************************************************************
 360:Generated_Source\PSoC5/Filter_1.c **** * Function Name: Filter_1_Write8
 361:Generated_Source\PSoC5/Filter_1.c **** ********************************************************************************
 362:Generated_Source\PSoC5/Filter_1.c **** *
 363:Generated_Source\PSoC5/Filter_1.c **** * Summary:
 364:Generated_Source\PSoC5/Filter_1.c **** *  Set the value in one of the DFB Input Staging Registers 
 365:Generated_Source\PSoC5/Filter_1.c **** *
 366:Generated_Source\PSoC5/Filter_1.c **** * Parameters:  
 367:Generated_Source\PSoC5/Filter_1.c **** *  channel:  Use either Filter_1_CHANNEL_A or 
 368:Generated_Source\PSoC5/Filter_1.c **** *            Filter_1_CHANNEL_B as arguments to the function.  
 369:Generated_Source\PSoC5/Filter_1.c **** *  sample:   The 8-bit, right justified input sample. 
 370:Generated_Source\PSoC5/Filter_1.c **** *
 371:Generated_Source\PSoC5/Filter_1.c **** * Return: 
 372:Generated_Source\PSoC5/Filter_1.c **** *  void
 373:Generated_Source\PSoC5/Filter_1.c **** *
 374:Generated_Source\PSoC5/Filter_1.c **** * Note:
 375:Generated_Source\PSoC5/Filter_1.c **** *  Order of the write is important.  On the load of the high byte, the DFB sets
 376:Generated_Source\PSoC5/Filter_1.c **** *  the input ready bit.
 377:Generated_Source\PSoC5/Filter_1.c **** *
 378:Generated_Source\PSoC5/Filter_1.c **** *******************************************************************************/
 379:Generated_Source\PSoC5/Filter_1.c **** void Filter_1_Write8(uint8 channel, uint8 sample) 
 380:Generated_Source\PSoC5/Filter_1.c **** {
 405              		.loc 1 380 0
 406              		.cfi_startproc
 407              		@ args = 0, pretend = 0, frame = 0
 408              		@ frame_needed = 0, uses_anonymous_args = 0
 409              		@ link register save eliminated.
 410              	.LVL29:
 381:Generated_Source\PSoC5/Filter_1.c ****     if (channel == Filter_1_CHANNEL_A)
 411              		.loc 1 381 0
 412 0000 10B9     		cbnz	r0, .L36
 382:Generated_Source\PSoC5/Filter_1.c ****     {
 383:Generated_Source\PSoC5/Filter_1.c ****         Filter_1_STAGEAH_REG = sample;
 413              		.loc 1 383 0
 414 0002 044B     		ldr	r3, .L38
 415 0004 1970     		strb	r1, [r3]
ARM GAS  C:\Users\ALVAROGA\AppData\Local\Temp\ccsbyCdW.s 			page 15


 416 0006 7047     		bx	lr
 417              	.L36:
 384:Generated_Source\PSoC5/Filter_1.c ****     }
 385:Generated_Source\PSoC5/Filter_1.c ****     else if (channel == Filter_1_CHANNEL_B)
 418              		.loc 1 385 0
 419 0008 0128     		cmp	r0, #1
 420 000a 01D1     		bne	.L35
 386:Generated_Source\PSoC5/Filter_1.c ****     {
 387:Generated_Source\PSoC5/Filter_1.c ****         Filter_1_STAGEBH_REG = sample;
 421              		.loc 1 387 0
 422 000c 024B     		ldr	r3, .L38+4
 423 000e 1970     		strb	r1, [r3]
 424              	.L35:
 425 0010 7047     		bx	lr
 426              	.L39:
 427 0012 00BF     		.align	2
 428              	.L38:
 429 0014 A2C70040 		.word	1073792930
 430 0018 A6C70040 		.word	1073792934
 431              		.cfi_endproc
 432              	.LFE7:
 433              		.size	Filter_1_Write8, .-Filter_1_Write8
 434              		.section	.text.Filter_1_Write16,"ax",%progbits
 435              		.align	2
 436              		.global	Filter_1_Write16
 437              		.thumb
 438              		.thumb_func
 439              		.type	Filter_1_Write16, %function
 440              	Filter_1_Write16:
 441              	.LFB8:
 388:Generated_Source\PSoC5/Filter_1.c ****     }
 389:Generated_Source\PSoC5/Filter_1.c **** 	else
 390:Generated_Source\PSoC5/Filter_1.c **** 	{
 391:Generated_Source\PSoC5/Filter_1.c **** 		/* No value is loaded on bad channel input */
 392:Generated_Source\PSoC5/Filter_1.c **** 	}
 393:Generated_Source\PSoC5/Filter_1.c **** }
 394:Generated_Source\PSoC5/Filter_1.c **** 
 395:Generated_Source\PSoC5/Filter_1.c **** 
 396:Generated_Source\PSoC5/Filter_1.c **** /*******************************************************************************
 397:Generated_Source\PSoC5/Filter_1.c **** * Function Name: Filter_1_Write16
 398:Generated_Source\PSoC5/Filter_1.c **** ********************************************************************************
 399:Generated_Source\PSoC5/Filter_1.c **** *
 400:Generated_Source\PSoC5/Filter_1.c **** * Summary:
 401:Generated_Source\PSoC5/Filter_1.c **** *  Set the value in one of the DFB Input Staging Registers 
 402:Generated_Source\PSoC5/Filter_1.c **** *
 403:Generated_Source\PSoC5/Filter_1.c **** * Parameters:  
 404:Generated_Source\PSoC5/Filter_1.c **** *  channel:  Use either Filter_1_CHANNEL_A or 
 405:Generated_Source\PSoC5/Filter_1.c **** *            Filter_1_CHANNEL_B as arguments to the function.  
 406:Generated_Source\PSoC5/Filter_1.c **** *  sample:   The 16-bit, right justified input sample. 
 407:Generated_Source\PSoC5/Filter_1.c **** *
 408:Generated_Source\PSoC5/Filter_1.c **** * Return: 
 409:Generated_Source\PSoC5/Filter_1.c **** *  void
 410:Generated_Source\PSoC5/Filter_1.c **** *
 411:Generated_Source\PSoC5/Filter_1.c **** * Note:
 412:Generated_Source\PSoC5/Filter_1.c **** *  Order of the write is important.  On the load of the high byte, the DFB sets
 413:Generated_Source\PSoC5/Filter_1.c **** *  the input ready bit.
 414:Generated_Source\PSoC5/Filter_1.c **** *
ARM GAS  C:\Users\ALVAROGA\AppData\Local\Temp\ccsbyCdW.s 			page 16


 415:Generated_Source\PSoC5/Filter_1.c **** *******************************************************************************/
 416:Generated_Source\PSoC5/Filter_1.c **** #if defined(__C51__) || defined(__CX51__)
 417:Generated_Source\PSoC5/Filter_1.c **** 
 418:Generated_Source\PSoC5/Filter_1.c ****     void Filter_1_Write16(uint8 channel, uint16 sample) 
 419:Generated_Source\PSoC5/Filter_1.c ****     {
 420:Generated_Source\PSoC5/Filter_1.c ****         /* Write the STAGE MSB reg last as it signals a complete wrote to the 
 421:Generated_Source\PSoC5/Filter_1.c ****            DFB.*/
 422:Generated_Source\PSoC5/Filter_1.c ****         if (channel == Filter_1_CHANNEL_A)
 423:Generated_Source\PSoC5/Filter_1.c ****         {
 424:Generated_Source\PSoC5/Filter_1.c ****             Filter_1_STAGEAM_REG = (uint8)(sample);
 425:Generated_Source\PSoC5/Filter_1.c ****             Filter_1_STAGEAH_REG = (uint8)(sample >> 8u);
 426:Generated_Source\PSoC5/Filter_1.c ****         }
 427:Generated_Source\PSoC5/Filter_1.c ****         else if (channel == Filter_1_CHANNEL_B)
 428:Generated_Source\PSoC5/Filter_1.c ****         {
 429:Generated_Source\PSoC5/Filter_1.c ****             Filter_1_STAGEBM_REG = (uint8)(sample);
 430:Generated_Source\PSoC5/Filter_1.c ****             Filter_1_STAGEBH_REG = (uint8)(sample >> 8u);
 431:Generated_Source\PSoC5/Filter_1.c ****         }
 432:Generated_Source\PSoC5/Filter_1.c ****         else
 433:Generated_Source\PSoC5/Filter_1.c **** 		{
 434:Generated_Source\PSoC5/Filter_1.c **** 			/* No value is loaded on bad channel input */
 435:Generated_Source\PSoC5/Filter_1.c **** 		}
 436:Generated_Source\PSoC5/Filter_1.c ****     }
 437:Generated_Source\PSoC5/Filter_1.c **** 
 438:Generated_Source\PSoC5/Filter_1.c **** #else
 439:Generated_Source\PSoC5/Filter_1.c **** 
 440:Generated_Source\PSoC5/Filter_1.c ****     void Filter_1_Write16(uint8 channel, uint16 sample) 
 441:Generated_Source\PSoC5/Filter_1.c ****     {
 442              		.loc 1 441 0
 443              		.cfi_startproc
 444              		@ args = 0, pretend = 0, frame = 0
 445              		@ frame_needed = 0, uses_anonymous_args = 0
 446              		@ link register save eliminated.
 447              	.LVL30:
 442:Generated_Source\PSoC5/Filter_1.c ****         if (channel == Filter_1_CHANNEL_A)
 448              		.loc 1 442 0
 449 0000 10B9     		cbnz	r0, .L41
 443:Generated_Source\PSoC5/Filter_1.c ****         {
 444:Generated_Source\PSoC5/Filter_1.c ****             Filter_1_STAGEA16_REG = sample;
 450              		.loc 1 444 0
 451 0002 044B     		ldr	r3, .L43
 452 0004 1980     		strh	r1, [r3]	@ unaligned
 453 0006 7047     		bx	lr
 454              	.L41:
 445:Generated_Source\PSoC5/Filter_1.c ****         }
 446:Generated_Source\PSoC5/Filter_1.c ****         else if (channel == Filter_1_CHANNEL_B)
 455              		.loc 1 446 0
 456 0008 0128     		cmp	r0, #1
 457 000a 01D1     		bne	.L40
 447:Generated_Source\PSoC5/Filter_1.c ****         {
 448:Generated_Source\PSoC5/Filter_1.c ****             Filter_1_STAGEB16_REG = sample;
 458              		.loc 1 448 0
 459 000c 024B     		ldr	r3, .L43+4
 460 000e 1980     		strh	r1, [r3]	@ unaligned
 461              	.L40:
 462 0010 7047     		bx	lr
 463              	.L44:
 464 0012 00BF     		.align	2
ARM GAS  C:\Users\ALVAROGA\AppData\Local\Temp\ccsbyCdW.s 			page 17


 465              	.L43:
 466 0014 A1C70040 		.word	1073792929
 467 0018 A5C70040 		.word	1073792933
 468              		.cfi_endproc
 469              	.LFE8:
 470              		.size	Filter_1_Write16, .-Filter_1_Write16
 471              		.section	.text.Filter_1_Write24,"ax",%progbits
 472              		.align	2
 473              		.global	Filter_1_Write24
 474              		.thumb
 475              		.thumb_func
 476              		.type	Filter_1_Write24, %function
 477              	Filter_1_Write24:
 478              	.LFB9:
 449:Generated_Source\PSoC5/Filter_1.c ****         }
 450:Generated_Source\PSoC5/Filter_1.c ****         else
 451:Generated_Source\PSoC5/Filter_1.c **** 		{
 452:Generated_Source\PSoC5/Filter_1.c **** 			/* No value is loaded on bad channel input */
 453:Generated_Source\PSoC5/Filter_1.c **** 		}
 454:Generated_Source\PSoC5/Filter_1.c ****     }
 455:Generated_Source\PSoC5/Filter_1.c **** 
 456:Generated_Source\PSoC5/Filter_1.c **** #endif /* defined(__C51__) || defined(__CX51__) */
 457:Generated_Source\PSoC5/Filter_1.c **** 
 458:Generated_Source\PSoC5/Filter_1.c **** 
 459:Generated_Source\PSoC5/Filter_1.c **** /*******************************************************************************
 460:Generated_Source\PSoC5/Filter_1.c **** * Function Name: Filter_1_Write24
 461:Generated_Source\PSoC5/Filter_1.c **** ********************************************************************************
 462:Generated_Source\PSoC5/Filter_1.c **** *
 463:Generated_Source\PSoC5/Filter_1.c **** * Summary:
 464:Generated_Source\PSoC5/Filter_1.c **** *  Set the value in one of the DFB Input Staging Registers 
 465:Generated_Source\PSoC5/Filter_1.c **** *
 466:Generated_Source\PSoC5/Filter_1.c **** * Parameters:  
 467:Generated_Source\PSoC5/Filter_1.c **** *  channel:  Use either Filter_1_CHANNEL_A or 
 468:Generated_Source\PSoC5/Filter_1.c **** *            Filter_1_CHANNEL_B as arguments to the function.  
 469:Generated_Source\PSoC5/Filter_1.c **** *  sample:   The 24-bit, right justified input sample inside of a uint32. 
 470:Generated_Source\PSoC5/Filter_1.c **** *
 471:Generated_Source\PSoC5/Filter_1.c **** * Return: 
 472:Generated_Source\PSoC5/Filter_1.c **** *  void
 473:Generated_Source\PSoC5/Filter_1.c **** *
 474:Generated_Source\PSoC5/Filter_1.c **** * Note:
 475:Generated_Source\PSoC5/Filter_1.c **** *  Order of the write is important.  On the load of the high byte, the DFB sets
 476:Generated_Source\PSoC5/Filter_1.c **** *  the input ready bit.
 477:Generated_Source\PSoC5/Filter_1.c **** *
 478:Generated_Source\PSoC5/Filter_1.c **** *******************************************************************************/
 479:Generated_Source\PSoC5/Filter_1.c **** #if defined(__C51__) || defined(__CX51__)
 480:Generated_Source\PSoC5/Filter_1.c **** 
 481:Generated_Source\PSoC5/Filter_1.c ****     void Filter_1_Write24(uint8 channel, uint32 sample) 
 482:Generated_Source\PSoC5/Filter_1.c ****     {
 483:Generated_Source\PSoC5/Filter_1.c ****         /* Write the STAGE LSB reg last as it signals a complete wrote to 
 484:Generated_Source\PSoC5/Filter_1.c ****            the DFB.*/
 485:Generated_Source\PSoC5/Filter_1.c ****         if (channel == Filter_1_CHANNEL_A)
 486:Generated_Source\PSoC5/Filter_1.c ****         {
 487:Generated_Source\PSoC5/Filter_1.c ****             Filter_1_STAGEA_REG  = (uint8)(sample);
 488:Generated_Source\PSoC5/Filter_1.c ****             Filter_1_STAGEAM_REG = (uint8)(sample >> 8u);
 489:Generated_Source\PSoC5/Filter_1.c ****             Filter_1_STAGEAH_REG = (uint8)(sample >> 16u);
 490:Generated_Source\PSoC5/Filter_1.c ****         }
 491:Generated_Source\PSoC5/Filter_1.c ****         else if (channel == Filter_1_CHANNEL_B)
ARM GAS  C:\Users\ALVAROGA\AppData\Local\Temp\ccsbyCdW.s 			page 18


 492:Generated_Source\PSoC5/Filter_1.c ****         {
 493:Generated_Source\PSoC5/Filter_1.c ****             Filter_1_STAGEB_REG = (uint8)(sample);
 494:Generated_Source\PSoC5/Filter_1.c ****             Filter_1_STAGEBM_REG = (uint8)(sample >> 8u);
 495:Generated_Source\PSoC5/Filter_1.c ****             Filter_1_STAGEBH_REG = (uint8)(sample >> 16u);
 496:Generated_Source\PSoC5/Filter_1.c ****         }
 497:Generated_Source\PSoC5/Filter_1.c ****         else
 498:Generated_Source\PSoC5/Filter_1.c **** 		{
 499:Generated_Source\PSoC5/Filter_1.c **** 			/* No value is loaded on bad channel input */
 500:Generated_Source\PSoC5/Filter_1.c **** 		}
 501:Generated_Source\PSoC5/Filter_1.c ****     }
 502:Generated_Source\PSoC5/Filter_1.c **** 
 503:Generated_Source\PSoC5/Filter_1.c **** #else
 504:Generated_Source\PSoC5/Filter_1.c **** 
 505:Generated_Source\PSoC5/Filter_1.c ****     void Filter_1_Write24(uint8 channel, uint32 sample) 
 506:Generated_Source\PSoC5/Filter_1.c ****     {
 479              		.loc 1 506 0
 480              		.cfi_startproc
 481              		@ args = 0, pretend = 0, frame = 0
 482              		@ frame_needed = 0, uses_anonymous_args = 0
 483              		@ link register save eliminated.
 484              	.LVL31:
 507:Generated_Source\PSoC5/Filter_1.c ****         if (channel == Filter_1_CHANNEL_A)
 485              		.loc 1 507 0
 486 0000 10B9     		cbnz	r0, .L46
 508:Generated_Source\PSoC5/Filter_1.c ****         {
 509:Generated_Source\PSoC5/Filter_1.c ****             Filter_1_STAGEA24_REG = sample;
 487              		.loc 1 509 0
 488 0002 044B     		ldr	r3, .L48
 489 0004 1960     		str	r1, [r3]
 490 0006 7047     		bx	lr
 491              	.L46:
 510:Generated_Source\PSoC5/Filter_1.c ****         }
 511:Generated_Source\PSoC5/Filter_1.c ****         else if (channel == Filter_1_CHANNEL_B)
 492              		.loc 1 511 0
 493 0008 0128     		cmp	r0, #1
 494 000a 01D1     		bne	.L45
 512:Generated_Source\PSoC5/Filter_1.c ****         {
 513:Generated_Source\PSoC5/Filter_1.c ****             Filter_1_STAGEB24_REG = sample;
 495              		.loc 1 513 0
 496 000c 024B     		ldr	r3, .L48+4
 497 000e 1960     		str	r1, [r3]
 498              	.L45:
 499 0010 7047     		bx	lr
 500              	.L49:
 501 0012 00BF     		.align	2
 502              	.L48:
 503 0014 A0C70040 		.word	1073792928
 504 0018 A4C70040 		.word	1073792932
 505              		.cfi_endproc
 506              	.LFE9:
 507              		.size	Filter_1_Write24, .-Filter_1_Write24
 508              		.section	.text.Filter_1_SetCoherency,"ax",%progbits
 509              		.align	2
 510              		.global	Filter_1_SetCoherency
 511              		.thumb
 512              		.thumb_func
 513              		.type	Filter_1_SetCoherency, %function
ARM GAS  C:\Users\ALVAROGA\AppData\Local\Temp\ccsbyCdW.s 			page 19


 514              	Filter_1_SetCoherency:
 515              	.LFB10:
 514:Generated_Source\PSoC5/Filter_1.c ****         }
 515:Generated_Source\PSoC5/Filter_1.c ****         else
 516:Generated_Source\PSoC5/Filter_1.c **** 		{
 517:Generated_Source\PSoC5/Filter_1.c **** 			/* No value is loaded on bad channel input */
 518:Generated_Source\PSoC5/Filter_1.c **** 		}
 519:Generated_Source\PSoC5/Filter_1.c ****     }
 520:Generated_Source\PSoC5/Filter_1.c **** 
 521:Generated_Source\PSoC5/Filter_1.c **** #endif /* defined(__C51__) || defined(__CX51__) */
 522:Generated_Source\PSoC5/Filter_1.c **** 
 523:Generated_Source\PSoC5/Filter_1.c **** 
 524:Generated_Source\PSoC5/Filter_1.c **** /*******************************************************************************
 525:Generated_Source\PSoC5/Filter_1.c **** * Function Name: Filter_1_SetCoherency
 526:Generated_Source\PSoC5/Filter_1.c **** ********************************************************************************
 527:Generated_Source\PSoC5/Filter_1.c **** *
 528:Generated_Source\PSoC5/Filter_1.c **** * Summary:
 529:Generated_Source\PSoC5/Filter_1.c **** *  Sets the DFB coherency register with the user provided input 
 530:Generated_Source\PSoC5/Filter_1.c **** *
 531:Generated_Source\PSoC5/Filter_1.c **** * Parameters:  
 532:Generated_Source\PSoC5/Filter_1.c **** *  channel:  Filter_1_CHANNEL_A or Filter_1_CHANNEL_B
 533:Generated_Source\PSoC5/Filter_1.c **** *  byteSelect:  High byte, Middle byte or Low byte as the key coherency byte.
 534:Generated_Source\PSoC5/Filter_1.c **** *            
 535:Generated_Source\PSoC5/Filter_1.c **** * Return: 
 536:Generated_Source\PSoC5/Filter_1.c **** *  None.
 537:Generated_Source\PSoC5/Filter_1.c **** *
 538:Generated_Source\PSoC5/Filter_1.c **** *******************************************************************************/
 539:Generated_Source\PSoC5/Filter_1.c **** void Filter_1_SetCoherency(uint8 channel, uint8 byteSelect) 
 540:Generated_Source\PSoC5/Filter_1.c **** {
 516              		.loc 1 540 0
 517              		.cfi_startproc
 518              		@ args = 0, pretend = 0, frame = 0
 519              		@ frame_needed = 0, uses_anonymous_args = 0
 520              		@ link register save eliminated.
 521              	.LVL32:
 541:Generated_Source\PSoC5/Filter_1.c ****     if (channel == Filter_1_CHANNEL_A)
 522              		.loc 1 541 0
 523 0000 68B9     		cbnz	r0, .L51
 542:Generated_Source\PSoC5/Filter_1.c ****     {
 543:Generated_Source\PSoC5/Filter_1.c ****         Filter_1_COHER_REG &= 
 524              		.loc 1 543 0
 525 0002 104B     		ldr	r3, .L53
 526 0004 1A78     		ldrb	r2, [r3]	@ zero_extendqisi2
 527 0006 02F0CC02 		and	r2, r2, #204
 528 000a 1A70     		strb	r2, [r3]
 544:Generated_Source\PSoC5/Filter_1.c ****                 (uint8)(~(uint8)(Filter_1_STAGEA_COHER_MASK | Filter_1_HOLDA_COHER_MASK));
 545:Generated_Source\PSoC5/Filter_1.c ****         Filter_1_COHER_REG |= byteSelect;
 529              		.loc 1 545 0
 530 000c 1A78     		ldrb	r2, [r3]	@ zero_extendqisi2
 531 000e 0A43     		orrs	r2, r2, r1
 532 0010 1A70     		strb	r2, [r3]
 546:Generated_Source\PSoC5/Filter_1.c ****         Filter_1_COHER_REG |= (uint8)((uint8)byteSelect << 4u);
 533              		.loc 1 546 0
 534 0012 1A78     		ldrb	r2, [r3]	@ zero_extendqisi2
 535 0014 0901     		lsls	r1, r1, #4
 536              	.LVL33:
 537 0016 C9B2     		uxtb	r1, r1
ARM GAS  C:\Users\ALVAROGA\AppData\Local\Temp\ccsbyCdW.s 			page 20


 538 0018 1143     		orrs	r1, r1, r2
 539 001a 1970     		strb	r1, [r3]
 540 001c 7047     		bx	lr
 541              	.LVL34:
 542              	.L51:
 547:Generated_Source\PSoC5/Filter_1.c ****     }
 548:Generated_Source\PSoC5/Filter_1.c ****     else if (channel == Filter_1_CHANNEL_B)
 543              		.loc 1 548 0
 544 001e 0128     		cmp	r0, #1
 545 0020 0ED1     		bne	.L50
 549:Generated_Source\PSoC5/Filter_1.c ****     {
 550:Generated_Source\PSoC5/Filter_1.c ****         Filter_1_COHER_REG &= 
 546              		.loc 1 550 0
 547 0022 084B     		ldr	r3, .L53
 548 0024 1A78     		ldrb	r2, [r3]	@ zero_extendqisi2
 549 0026 02F03302 		and	r2, r2, #51
 550 002a 1A70     		strb	r2, [r3]
 551:Generated_Source\PSoC5/Filter_1.c ****                 (uint8)(~(uint8)(Filter_1_STAGEB_COHER_MASK | Filter_1_HOLDB_COHER_MASK));
 552:Generated_Source\PSoC5/Filter_1.c ****         Filter_1_COHER_REG |= (uint8)((uint8)byteSelect << 2u);
 551              		.loc 1 552 0
 552 002c 1878     		ldrb	r0, [r3]	@ zero_extendqisi2
 553              	.LVL35:
 554 002e 8A00     		lsls	r2, r1, #2
 555 0030 D2B2     		uxtb	r2, r2
 556 0032 0243     		orrs	r2, r2, r0
 557 0034 1A70     		strb	r2, [r3]
 553:Generated_Source\PSoC5/Filter_1.c ****         Filter_1_COHER_REG |= (uint8)((uint8)byteSelect << 6u);
 558              		.loc 1 553 0
 559 0036 1A78     		ldrb	r2, [r3]	@ zero_extendqisi2
 560 0038 8901     		lsls	r1, r1, #6
 561              	.LVL36:
 562 003a C9B2     		uxtb	r1, r1
 563 003c 1143     		orrs	r1, r1, r2
 564 003e 1970     		strb	r1, [r3]
 565              	.L50:
 566 0040 7047     		bx	lr
 567              	.L54:
 568 0042 00BF     		.align	2
 569              	.L53:
 570 0044 B0C70040 		.word	1073792944
 571              		.cfi_endproc
 572              	.LFE10:
 573              		.size	Filter_1_SetCoherency, .-Filter_1_SetCoherency
 574              		.section	.text.Filter_1_SetCoherencyEx,"ax",%progbits
 575              		.align	2
 576              		.global	Filter_1_SetCoherencyEx
 577              		.thumb
 578              		.thumb_func
 579              		.type	Filter_1_SetCoherencyEx, %function
 580              	Filter_1_SetCoherencyEx:
 581              	.LFB11:
 554:Generated_Source\PSoC5/Filter_1.c ****     }
 555:Generated_Source\PSoC5/Filter_1.c ****     else
 556:Generated_Source\PSoC5/Filter_1.c ****     {
 557:Generated_Source\PSoC5/Filter_1.c ****         /* Invalid channel value */
 558:Generated_Source\PSoC5/Filter_1.c ****     }
 559:Generated_Source\PSoC5/Filter_1.c **** }
ARM GAS  C:\Users\ALVAROGA\AppData\Local\Temp\ccsbyCdW.s 			page 21


 560:Generated_Source\PSoC5/Filter_1.c **** 
 561:Generated_Source\PSoC5/Filter_1.c **** 
 562:Generated_Source\PSoC5/Filter_1.c **** /*******************************************************************************
 563:Generated_Source\PSoC5/Filter_1.c **** * Function Name: Filter_1_SetCoherencyEx
 564:Generated_Source\PSoC5/Filter_1.c **** ********************************************************************************
 565:Generated_Source\PSoC5/Filter_1.c **** * 
 566:Generated_Source\PSoC5/Filter_1.c **** * Summary:
 567:Generated_Source\PSoC5/Filter_1.c **** *  Configures the DFB coherency register for each of the staging and holding 
 568:Generated_Source\PSoC5/Filter_1.c **** *  registers. Allows multiple registers with the same configuration to be set 
 569:Generated_Source\PSoC5/Filter_1.c **** *  at the same time. This API should be used when the coherency of the staging 
 570:Generated_Source\PSoC5/Filter_1.c **** *  and holding register of a channel is different. 
 571:Generated_Source\PSoC5/Filter_1.c **** *
 572:Generated_Source\PSoC5/Filter_1.c **** * Parameters:  
 573:Generated_Source\PSoC5/Filter_1.c **** *  regSelect: This parameter is used to specify the registers that will undergo
 574:Generated_Source\PSoC5/Filter_1.c **** *             the change in coherency. These are maskable and multiple registers
 575:Generated_Source\PSoC5/Filter_1.c **** *             with the same configuration can passed by performing an OR 
 576:Generated_Source\PSoC5/Filter_1.c **** *             operation on the following definitions. 
 577:Generated_Source\PSoC5/Filter_1.c **** *            Filter_1_STAGEA_COHER, 
 578:Generated_Source\PSoC5/Filter_1.c **** *            Filter_1_STAGEB_COHER,
 579:Generated_Source\PSoC5/Filter_1.c **** *            Filter_1_HOLDA_COHER,
 580:Generated_Source\PSoC5/Filter_1.c **** *            Filter_1_HOLDB_COHER.
 581:Generated_Source\PSoC5/Filter_1.c **** *  key: The key coherency byte that will be chosen for the register(s).
 582:Generated_Source\PSoC5/Filter_1.c **** *       Filter_1_KEY_LOW, 
 583:Generated_Source\PSoC5/Filter_1.c **** *       Filter_1_KEY_MID,
 584:Generated_Source\PSoC5/Filter_1.c **** *       Filter_1_KEY_HIGH.
 585:Generated_Source\PSoC5/Filter_1.c **** *            
 586:Generated_Source\PSoC5/Filter_1.c **** * Return: 
 587:Generated_Source\PSoC5/Filter_1.c **** *  None.
 588:Generated_Source\PSoC5/Filter_1.c **** *
 589:Generated_Source\PSoC5/Filter_1.c **** *******************************************************************************/
 590:Generated_Source\PSoC5/Filter_1.c **** void Filter_1_SetCoherencyEx(uint8 regSelect, uint8 key) 
 591:Generated_Source\PSoC5/Filter_1.c **** {
 582              		.loc 1 591 0
 583              		.cfi_startproc
 584              		@ args = 0, pretend = 0, frame = 0
 585              		@ frame_needed = 0, uses_anonymous_args = 0
 586              		@ link register save eliminated.
 587              	.LVL37:
 592:Generated_Source\PSoC5/Filter_1.c ****     uint8 keyReg;
 593:Generated_Source\PSoC5/Filter_1.c ****     
 594:Generated_Source\PSoC5/Filter_1.c ****     keyReg = (uint8)(key << 2u) | key;
 588              		.loc 1 594 0
 589 0000 8B00     		lsls	r3, r1, #2
 590 0002 DBB2     		uxtb	r3, r3
 591 0004 1943     		orrs	r1, r1, r3
 592              	.LVL38:
 595:Generated_Source\PSoC5/Filter_1.c ****     keyReg |= (uint8)(keyReg << 4u);
 593              		.loc 1 595 0
 594 0006 0B01     		lsls	r3, r1, #4
 595 0008 DBB2     		uxtb	r3, r3
 596 000a 1943     		orrs	r1, r1, r3
 597              	.LVL39:
 596:Generated_Source\PSoC5/Filter_1.c ****     
 597:Generated_Source\PSoC5/Filter_1.c ****     Filter_1_COHER_REG &= (uint8)~regSelect;
 598              		.loc 1 597 0
 599 000c 044B     		ldr	r3, .L56
 600 000e 1A78     		ldrb	r2, [r3]	@ zero_extendqisi2
ARM GAS  C:\Users\ALVAROGA\AppData\Local\Temp\ccsbyCdW.s 			page 22


 601 0010 22EA0002 		bic	r2, r2, r0
 602 0014 1A70     		strb	r2, [r3]
 598:Generated_Source\PSoC5/Filter_1.c ****     Filter_1_COHER_REG |= keyReg & regSelect;
 603              		.loc 1 598 0
 604 0016 1A78     		ldrb	r2, [r3]	@ zero_extendqisi2
 605 0018 0840     		ands	r0, r0, r1
 606              	.LVL40:
 607 001a 1043     		orrs	r0, r0, r2
 608 001c 1870     		strb	r0, [r3]
 609 001e 7047     		bx	lr
 610              	.L57:
 611              		.align	2
 612              	.L56:
 613 0020 B0C70040 		.word	1073792944
 614              		.cfi_endproc
 615              	.LFE11:
 616              		.size	Filter_1_SetCoherencyEx, .-Filter_1_SetCoherencyEx
 617              		.section	.text.Filter_1_SetDalign,"ax",%progbits
 618              		.align	2
 619              		.global	Filter_1_SetDalign
 620              		.thumb
 621              		.thumb_func
 622              		.type	Filter_1_SetDalign, %function
 623              	Filter_1_SetDalign:
 624              	.LFB12:
 599:Generated_Source\PSoC5/Filter_1.c **** }
 600:Generated_Source\PSoC5/Filter_1.c **** 
 601:Generated_Source\PSoC5/Filter_1.c **** 
 602:Generated_Source\PSoC5/Filter_1.c **** /*******************************************************************************
 603:Generated_Source\PSoC5/Filter_1.c **** * Function Name: Filter_1_SetDalign
 604:Generated_Source\PSoC5/Filter_1.c **** ********************************************************************************
 605:Generated_Source\PSoC5/Filter_1.c **** * 
 606:Generated_Source\PSoC5/Filter_1.c **** * Summary:
 607:Generated_Source\PSoC5/Filter_1.c **** *  Configures the DFB dalign register for each of the staging and holding 
 608:Generated_Source\PSoC5/Filter_1.c **** *  registers. Allows multiple registers with the same configuration to be set
 609:Generated_Source\PSoC5/Filter_1.c **** *  at the same time. 
 610:Generated_Source\PSoC5/Filter_1.c **** *
 611:Generated_Source\PSoC5/Filter_1.c **** * Parameters:  
 612:Generated_Source\PSoC5/Filter_1.c **** *  regSelect: This parameter is used to specify the registers that will undergo
 613:Generated_Source\PSoC5/Filter_1.c **** *             the change in data alignment. These are maskable and multiple 
 614:Generated_Source\PSoC5/Filter_1.c **** *             registers with the same configuration can passed by performing 
 615:Generated_Source\PSoC5/Filter_1.c **** *             an OR operation on the following definitions.
 616:Generated_Source\PSoC5/Filter_1.c **** *             Filter_1_STAGEA_DALIGN, 
 617:Generated_Source\PSoC5/Filter_1.c **** *             Filter_1_STAGEB_DALIGN,
 618:Generated_Source\PSoC5/Filter_1.c **** *             Filter_1_HOLDA_DALIGN,
 619:Generated_Source\PSoC5/Filter_1.c **** *             Filter_1_HOLDB_DALIGN.
 620:Generated_Source\PSoC5/Filter_1.c **** *  state: The state is use to either enable the data alignment bits for the 
 621:Generated_Source\PSoC5/Filter_1.c **** *         corresponding registers or to disable them.
 622:Generated_Source\PSoC5/Filter_1.c **** *         Filter_1_ENABLED,
 623:Generated_Source\PSoC5/Filter_1.c **** *         Filter_1_DISABLED
 624:Generated_Source\PSoC5/Filter_1.c **** *            
 625:Generated_Source\PSoC5/Filter_1.c **** * Return: 
 626:Generated_Source\PSoC5/Filter_1.c **** *  None.
 627:Generated_Source\PSoC5/Filter_1.c **** *
 628:Generated_Source\PSoC5/Filter_1.c **** *******************************************************************************/
 629:Generated_Source\PSoC5/Filter_1.c **** void Filter_1_SetDalign(uint8 regSelect, uint8 state) 
 630:Generated_Source\PSoC5/Filter_1.c **** {    
ARM GAS  C:\Users\ALVAROGA\AppData\Local\Temp\ccsbyCdW.s 			page 23


 625              		.loc 1 630 0
 626              		.cfi_startproc
 627              		@ args = 0, pretend = 0, frame = 0
 628              		@ frame_needed = 0, uses_anonymous_args = 0
 629              		@ link register save eliminated.
 630              	.LVL41:
 631:Generated_Source\PSoC5/Filter_1.c ****     if (state == Filter_1_ENABLED)
 631              		.loc 1 631 0
 632 0000 0129     		cmp	r1, #1
 633 0002 04D1     		bne	.L59
 632:Generated_Source\PSoC5/Filter_1.c ****     {
 633:Generated_Source\PSoC5/Filter_1.c ****         Filter_1_DALIGN_REG |= regSelect;
 634              		.loc 1 633 0
 635 0004 054B     		ldr	r3, .L61
 636 0006 1A78     		ldrb	r2, [r3]	@ zero_extendqisi2
 637 0008 1043     		orrs	r0, r0, r2
 638              	.LVL42:
 639 000a 1870     		strb	r0, [r3]
 640 000c 7047     		bx	lr
 641              	.LVL43:
 642              	.L59:
 634:Generated_Source\PSoC5/Filter_1.c ****     }
 635:Generated_Source\PSoC5/Filter_1.c ****     else if (state == Filter_1_DISABLED)
 643              		.loc 1 635 0
 644 000e 21B9     		cbnz	r1, .L58
 636:Generated_Source\PSoC5/Filter_1.c ****     {
 637:Generated_Source\PSoC5/Filter_1.c ****         Filter_1_DALIGN_REG &= (uint8)(~regSelect);
 645              		.loc 1 637 0
 646 0010 024A     		ldr	r2, .L61
 647 0012 1378     		ldrb	r3, [r2]	@ zero_extendqisi2
 648 0014 23EA0000 		bic	r0, r3, r0
 649              	.LVL44:
 650 0018 1070     		strb	r0, [r2]
 651              	.L58:
 652 001a 7047     		bx	lr
 653              	.L62:
 654              		.align	2
 655              	.L61:
 656 001c B4C70040 		.word	1073792948
 657              		.cfi_endproc
 658              	.LFE12:
 659              		.size	Filter_1_SetDalign, .-Filter_1_SetDalign
 660              		.global	Filter_1_initVar
 661              		.bss
 662              		.set	.LANCHOR0,. + 0
 663              		.type	Filter_1_initVar, %object
 664              		.size	Filter_1_initVar, 1
 665              	Filter_1_initVar:
 666 0000 00       		.space	1
 667              		.text
 668              	.Letext0:
 669              		.file 2 "Generated_Source\\PSoC5\\cytypes.h"
 670              		.file 3 "Generated_Source\\PSoC5\\Filter_1_PVT.h"